$201C  40        RTI 
//------------------------------
$201D  78        SEI 
$201E  A2 FF     LDX #$FF
$2020  9A        TXS 
$2021  D8        CLD 
$2022  A9 1C     LDA #$1C
$2024  8D 18 03  STA $0318 
$2027  A9 20     LDA #$20
$2029  8D 19 03  STA $0319 
$202C  20 6F 27  JSR L_JSR_($276F)_($202C) OK
$202F  20 5B 27  JSR L_JSR_($275B)_($202F) OK
$2032  A9 00     LDA #$00
$2034  8D 13 91  STA $9113 
$2037  A9 80     LDA #$80
$2039  8D 1E 91  STA $911E 
$203C  A9 C0     LDA #$C0
$203E  8D 2E 91  STA $912E 
$2041  20 5E 26  JSR L_JSR_($265E)_($2041) OK
$2044  A9 40     LDA #$40
$2046  8D 10 91  STA $9110 
$2049  8D 20 91  STA $9120 
$204C  A9 E0     LDA #$E0
$204E  8D 14 03  STA $0314 
$2051  A9 25     LDA #$25
$2053  8D 15 03  STA $0315 
$2056  A2 0F     LDX #$0F
//------------------------------
L_BRS_($2058)_($205F) OK
//------------------------------
$2058  BD 04 20  LDA $2004,X 
$205B  9D 00 90  STA $9000,X 
$205E  CA        DEX 
$205F  10 F7     BPL L_BRS_($2058)_($205F) OK
$2061  A2 00     LDX #$00
$2063  8A        TXA 
//------------------------------
L_BRS_($2064)_($2077) OK
//------------------------------
$2064  A0 17     LDY #$17
$2066  48        PHA 
//------------------------------
L_BRS_($2067)_($206F) OK
//------------------------------
$2067  9D 00 02  STA $0200,X 
$206A  18        CLC 
$206B  69 0B     ADC #$0B
$206D  E8        INX 
$206E  88        DEY 
$206F  D0 F6     BNE L_BRS_($2067)_($206F) OK
$2071  68        PLA 
$2072  18        CLC 
$2073  69 01     ADC #$01
$2075  C9 0B     CMP #$0B
$2077  D0 EB     BNE L_BRS_($2064)_($2077) OK
//------------------------------
L_JMP_($2079)_($2994) OK
L_JMP_($2079)_($299A) OK
//------------------------------
$2079  20 16 24  JSR L_JSR_($2416)_($2079) OK
$207C  A9 01     LDA #$01
$207E  A2 05     LDX #$05
//------------------------------
L_BRS_($2080)_($2083) OK
//------------------------------
$2080  95 45     STA $45,X 
$2082  CA        DEX 
$2083  10 FB     BPL L_BRS_($2080)_($2083) OK
$2085  A9 0F     LDA #$0F
$2087  8D 0E 90  STA $900E 
$208A  A9 00     LDA #$00
$208C  8D A8 03  STA $03A8 
//------------------------------
L_BRS_($208F)_($20E1) OK
//------------------------------
$208F  E6 58     INC $58 
$2091  A9 00     LDA #$00
$2093  8D 22 91  STA $9122 
$2096  A9 FF     LDA #$FF
$2098  8D 23 91  STA $9123 
$209B  A9 7F     LDA #$7F
$209D  8D 21 91  STA $9121 
$20A0  AE D3 1F  LDX $1FD3 
$20A3  AD 20 91  LDA $9120 
$20A6  85 13     STA $13 
$20A8  A9 10     LDA #$10
$20AA  24 13     BIT $13 
$20AC  D0 04     BNE L_BRS_($20B2)_($20AC) OK
$20AE  8A        TXA 
$20AF  29 02     AND #$02
$20B1  AA        TAX 
//------------------------------
L_BRS_($20B2)_($20AC) OK
//------------------------------
$20B2  A9 20     LDA #$20
$20B4  24 13     BIT $13 
$20B6  D0 04     BNE L_BRS_($20BC)_($20B6) OK
$20B8  8A        TXA 
$20B9  09 01     ORA #$01
$20BB  AA        TAX 
//------------------------------
L_BRS_($20BC)_($20B6) OK
//------------------------------
$20BC  A9 40     LDA #$40
$20BE  24 13     BIT $13 
$20C0  D0 04     BNE L_BRS_($20C6)_($20C0) OK
$20C2  8A        TXA 
$20C3  29 01     AND #$01
$20C5  AA        TAX 
//------------------------------
L_BRS_($20C6)_($20C0) OK
//------------------------------
$20C6  A9 80     LDA #$80
$20C8  24 13     BIT $13 
$20CA  D0 04     BNE L_BRS_($20D0)_($20CA) OK
$20CC  8A        TXA 
$20CD  09 02     ORA #$02
$20CF  AA        TAX 
//------------------------------
L_BRS_($20D0)_($20CA) OK
//------------------------------
$20D0  8A        TXA 
$20D1  8D D3 1F  STA $1FD3 
$20D4  20 B9 24  JSR L_JSR_($24B9)_($20D4) OK
$20D7  A9 FE     LDA #$FE
$20D9  8D 21 91  STA $9121 
$20DC  AD 20 91  LDA $9120 
$20DF  29 10     AND #$10
$20E1  D0 AC     BNE L_BRS_($208F)_($20E1) OK
$20E3  20 16 24  JSR L_JSR_($2416)_($20E3) OK
$20E6  4C D1 25  JMP L_JMP_($25D1)_($20E6) OK
//------------------------------
L_JSR_($20E9)_($3306) OK
//------------------------------
$20E9  A5 4A     LDA $4A 
$20EB  29 03     AND #$03
$20ED  F0 01     BEQ L_BRS_($20F0)_($20ED) OK
$20EF  60        RTS 
//------------------------------
L_BRS_($20F0)_($20ED) OK
//------------------------------
$20F0  20 9D 25  JSR L_JSR_($259D)_($20F0) OK
$20F3            .byte $06,$88,$03,$FF
$20F7  A2 04     LDX #$04
$20F9  A0 00     LDY #$00
//------------------------------
L_BRS_($20FB)_($210D) OK
//------------------------------
$20FB  B1 06     LDA ($06),Y 
$20FD  F0 11     BEQ L_BRS_($2110)_($20FD) OK
$20FF  A5 06     LDA $06 
$2101  18        CLC 
$2102  69 08     ADC #$08
$2104  85 06     STA $06 
$2106  A5 07     LDA $07 
$2108  69 00     ADC #$00
$210A  85 07     STA $07 
$210C  CA        DEX 
$210D  D0 EC     BNE L_BRS_($20FB)_($210D) OK
$210F  60        RTS 
//------------------------------
L_BRS_($2110)_($20FD) OK
//------------------------------
$2110  B1 00     LDA ($00),Y 
$2112  AA        TAX 
$2113  29 80     AND #$80
$2115  09 10     ORA #$10
$2117  91 06     STA ($06),Y 
$2119  C8        INY 
$211A  B1 00     LDA ($00),Y 
$211C  29 F8     AND #$F8
$211E  09 05     ORA #$05
$2120  85 08     STA $08 
$2122  8A        TXA 
$2123  29 80     AND #$80
$2125  F0 4C     BEQ L_BRS_($2173)_($2125) OK
$2127  A5 08     LDA $08 
$2129  38        SEC 
$212A  E9 08     SBC #$08
$212C  20 98 22  JSR L_JSR_($2298)_($212C) OK
//------------------------------
L_JMP_($212F)_($2184) OK
L_JMP_($212F)_($218A) OK
//------------------------------
$212F  85 08     STA $08 
$2131  C8        INY 
$2132  C8        INY 
$2133  B1 00     LDA ($00),Y 
$2135  38        SEC 
$2136  E9 0D     SBC #$0D
$2138  88        DEY 
$2139  88        DEY 
$213A  91 06     STA ($06),Y 
$213C  A2 03     LDX #$03
$213E  C8        INY 
$213F  A5 08     LDA $08 
$2141  91 06     STA ($06),Y 
$2143  29 FB     AND #$FB
//------------------------------
L_BRS_($2145)_($2149) OK
//------------------------------
$2145  C8        INY 
$2146  91 06     STA ($06),Y 
$2148  CA        DEX 
$2149  D0 FA     BNE L_BRS_($2145)_($2149) OK
$214B  C8        INY 
$214C  A5 4C     LDA $4C 
$214E  29 38     AND #$38
$2150  18        CLC 
$2151  69 40     ADC #$40
$2153  91 06     STA ($06),Y 
$2155  C8        INY 
$2156  A5 4C     LDA $4C 
$2158  29 07     AND #$07
$215A  AA        TAX 
$215B  BD 6B 21  LDA $216B,X 
$215E  91 06     STA ($06),Y 
$2160  A9 03     LDA #$03
$2162  8D AD 03  STA $03AD 
$2165  A9 10     LDA #$10
$2167  8D AE 03  STA $03AE 
$216A  60        RTS 
//------------------------------
$216B            .byte $01,$02,$03,$04,$06,$07,$03,$07
//------------------------------
L_BRS_($2173)_($2125) OK
//------------------------------
$2173  B1 00     LDA ($00),Y 
$2175  29 07     AND #$07
$2177  F0 14     BEQ L_BRS_($218D)_($2177) OK
$2179  A5 08     LDA $08 
$217B  18        CLC 
$217C  69 18     ADC #$18
//------------------------------
L_JMP_($217E)_($2192) OK
//------------------------------
$217E  29 FE     AND #$FE
$2180  C9 B8     CMP #$B8
$2182  B0 03     BCS L_BRS_($2187)_($2182) OK
$2184  4C 2F 21  JMP L_JMP_($212F)_($2184) OK
//------------------------------
L_BRS_($2187)_($2182) OK
//------------------------------
$2187  38        SEC 
$2188  E9 B8     SBC #$B8
$218A  4C 2F 21  JMP L_JMP_($212F)_($218A) OK
//------------------------------
L_BRS_($218D)_($2177) OK
//------------------------------
$218D  A5 08     LDA $08 
$218F  18        CLC 
$2190  69 10     ADC #$10
$2192  4C 7E 21  JMP L_JMP_($217E)_($2192) OK
//------------------------------
L_BRS_($2195)_($21C7) OK
//------------------------------
$2195  69 08     ADC #$08
$2197  4C CB 21  JMP L_JMP_($21CB)_($2197) OK
$219A  A0 06     LDY #$06
$219C  B1 00     LDA ($00),Y 
$219E  85 07     STA $07 
$21A0  C8        INY 
$21A1  B1 00     LDA ($00),Y 
$21A3  85 1B     STA $1B 
$21A5  A0 02     LDY #$02
$21A7  B1 00     LDA ($00),Y 
$21A9  85 06     STA $06 
$21AB  85 04     STA $04 
$21AD  88        DEY 
$21AE  B1 00     LDA ($00),Y 
$21B0  85 05     STA $05 
$21B2  85 13     STA $13 
$21B4  A5 06     LDA $06 
$21B6  2C 16 20  BIT $2016 
$21B9  F0 47     BEQ L_BRS_($2202)_($21B9) OK
$21BB  20 F7 34  JSR L_JSR_($34F7)_($21BB) OK
$21BE  20 1D 35  JSR L_JSR_($351D)_($21BE) OK
$21C1  A5 06     LDA $06 
$21C3  2C 14 20  BIT $2014 
$21C6  18        CLC 
$21C7  F0 CC     BEQ L_BRS_($2195)_($21C7) OK
$21C9  69 F8     ADC #$F8
//------------------------------
L_JMP_($21CB)_($2197) OK
//------------------------------
$21CB  20 98 22  JSR L_JSR_($2298)_($21CB) OK
$21CE  AA        TAX 
$21CF  A0 01     LDY #$01
$21D1  B1 00     LDA ($00),Y 
$21D3  88        DEY 
$21D4  C9 80     CMP #$80
$21D6  B0 04     BCS L_BRS_($21DC)_($21D6) OK
$21D8  B1 04     LDA ($04),Y 
$21DA  D0 20     BNE L_BRS_($21FC)_($21DA) OK
//------------------------------
L_BRS_($21DC)_($21D6) OK
//------------------------------
$21DC  8A        TXA 
$21DD  85 06     STA $06 
$21DF  B1 04     LDA ($04),Y 
$21E1  49 FF     EOR #$FF
$21E3  91 04     STA ($04),Y 
$21E5  B1 0C     LDA ($0C),Y 
$21E7  29 0F     AND #$0F
$21E9  C9 05     CMP #$05
$21EB  F0 04     BEQ L_BRS_($21F1)_($21EB) OK
$21ED  A5 1B     LDA $1B 
$21EF  91 0C     STA ($0C),Y 
//------------------------------
L_BRS_($21F1)_($21EB) OK
//------------------------------
$21F1  A5 07     LDA $07 
$21F3  38        SEC 
$21F4  E9 08     SBC #$08
$21F6  85 07     STA $07 
$21F8  29 F8     AND #$F8
$21FA  D0 06     BNE L_BRS_($2202)_($21FA) OK
//------------------------------
L_BRS_($21FC)_($21DA) OK
//------------------------------
$21FC  A5 06     LDA $06 
$21FE  29 FB     AND #$FB
$2200  85 06     STA $06 
//------------------------------
L_BRS_($2202)_($21B9) OK
L_BRS_($2202)_($21FA) OK
//------------------------------
$2202  20 9D 25  JSR L_JSR_($259D)_($2202) OK
$2205            .byte $14,$00,$03,$16,$1C,$E0,$02,$03
$220D            .byte $00,$FF
$220F  A0 02     LDY #$02
//------------------------------
L_BRS_($2211)_($221F) OK
L_BRS_($2211)_($2280) OK
//------------------------------
$2211  C8        INY 
$2212  B1 00     LDA ($00),Y 
$2214  45 06     EOR $06 
$2216  29 F8     AND #$F8
$2218  D0 0F     BNE L_BRS_($2229)_($2218) OK
$221A  20 8B 22  JSR L_JSR_($228B)_($221A) OK
$221D  C6 02     DEC $02 
$221F  D0 F0     BNE L_BRS_($2211)_($221F) OK
$2221  A9 00     LDA #$00
$2223  A8        TAY 
$2224  91 00     STA ($00),Y 
$2226  4C 1A 26  JMP L_JMP_($261A)_($2226) OK
//------------------------------
L_BRS_($2229)_($2218) OK
//------------------------------
$2229  B1 00     LDA ($00),Y 
$222B  2C 16 20  BIT $2016 
$222E  D0 27     BNE L_BRS_($2257)_($222E) OK
$2230  C6 07     DEC $07 
$2232  A5 07     LDA $07 
$2234  29 07     AND #$07
$2236  D0 10     BNE L_BRS_($2248)_($2236) OK
$2238  A5 4C     LDA $4C 
$223A  29 03     AND #$03
$223C  09 04     ORA #$04
$223E  05 07     ORA $07
$2240  85 07     STA $07 
$2242  B1 00     LDA ($00),Y 
$2244  09 04     ORA #$04
$2246  91 00     STA ($00),Y 
//------------------------------
L_BRS_($2248)_($2236) OK
L_JMP_($2248)_($2282) OK
//------------------------------
$2248  A0 06     LDY #$06
$224A  A5 07     LDA $07 
$224C  91 00     STA ($00),Y 
$224E  A0 02     LDY #$02
$2250  A5 06     LDA $06 
$2252  91 00     STA ($00),Y 
$2254  4C 1A 26  JMP L_JMP_($261A)_($2254) OK
//------------------------------
L_BRS_($2257)_($222E) OK
//------------------------------
$2257  B1 00     LDA ($00),Y 
$2259  85 04     STA $04 
$225B  2C 14 20  BIT $2014 
$225E  F0 25     BEQ L_BRS_($2285)_($225E) OK
$2260  18        CLC 
$2261  69 F8     ADC #$F8
//------------------------------
L_JMP_($2263)_($2288) OK
//------------------------------
$2263  20 98 22  JSR L_JSR_($2298)_($2263) OK
$2266  91 00     STA ($00),Y 
$2268  A5 13     LDA $13 
$226A  85 05     STA $05 
$226C  98        TYA 
$226D  48        PHA 
$226E  20 1D 35  JSR L_JSR_($351D)_($226E) OK
$2271  20 8B 22  JSR L_JSR_($228B)_($2271) OK
$2274  A0 00     LDY #$00
$2276  A5 14     LDA $14 
$2278  51 04     EOR ($04),Y 
$227A  91 04     STA ($04),Y 
$227C  68        PLA 
$227D  A8        TAY 
$227E  C6 02     DEC $02 
$2280  D0 8F     BNE L_BRS_($2211)_($2280) OK
$2282  4C 48 22  JMP L_JMP_($2248)_($2282) OK
//------------------------------
L_BRS_($2285)_($225E) OK
//------------------------------
$2285  18        CLC 
$2286  69 08     ADC #$08
$2288  4C 63 22  JMP L_JMP_($2263)_($2288) OK
//------------------------------
L_JSR_($228B)_($221A) OK
L_JSR_($228B)_($2271) OK
//------------------------------
$228B  A5 15     LDA $15 
$228D  85 14     STA $14 
$228F  A5 16     LDA $16 
$2291  85 15     STA $15 
$2293  A5 17     LDA $17 
$2295  85 16     STA $16 
$2297  60        RTS 
//------------------------------
L_JSR_($2298)_($212C) OK
L_JSR_($2298)_($21CB) OK
L_JSR_($2298)_($2263) OK
//------------------------------
$2298  48        PHA 
$2299  29 F8     AND #$F8
$229B  C9 B8     CMP #$B8
$229D  B0 02     BCS L_BRS_($22A1)_($229D) OK
$229F  68        PLA 
$22A0  60        RTS 
//------------------------------
L_BRS_($22A1)_($229D) OK
//------------------------------
$22A1  98        TYA 
$22A2  48        PHA 
$22A3  A0 00     LDY #$00
$22A5  B1 00     LDA ($00),Y 
$22A7  2C 1B 20  BIT $201B 
$22AA  F0 08     BEQ L_BRS_($22B4)_($22AA) OK
$22AC  68        PLA 
$22AD  A8        TAY 
$22AE  68        PLA 
$22AF  29 07     AND #$07
$22B1  09 B0     ORA #$B0
$22B3  60        RTS 
//------------------------------
L_BRS_($22B4)_($22AA) OK
//------------------------------
$22B4  68        PLA 
$22B5  A8        TAY 
$22B6  68        PLA 
$22B7  29 07     AND #$07
$22B9  60        RTS 
//------------------------------
L_JSR_($22BA)_($25DA) OK
L_JSR_($22BA)_($2E44) OK
//------------------------------
$22BA  20 16 24  JSR L_JSR_($2416)_($22BA) OK
$22BD  A5 59     LDA $59 
$22BF  29 03     AND #$03
$22C1  D0 0E     BNE L_BRS_($22D1)_($22C1) OK
$22C3  20 0B 23  JSR L_JSR_($230B)_($22C3) OK
$22C6  E6 5A     INC $5A 
$22C8  20 5B 23  JSR L_JSR_($235B)_($22C8) OK
//------------------------------
L_JMP_($22CB)_($22D4) OK
L_JMP_($22CB)_($22E0) OK
//------------------------------
$22CB  20 52 31  JSR L_JSR_($3152)_($22CB) OK
$22CE  4C AE 26  JMP L_JMP_($26AE)_($22CE) OK
//------------------------------
L_BRS_($22D1)_($22C1) OK
//------------------------------
$22D1  20 CB 2D  JSR L_JSR_($2DCB)_($22D1) OK
$22D4  4C CB 22  JMP L_JMP_($22CB)_($22D4) OK
//------------------------------
L_JSR_($22D7)_($29C7) OK
//------------------------------
$22D7  20 16 24  JSR L_JSR_($2416)_($22D7) OK
$22DA  20 73 23  JSR L_JSR_($2373)_($22DA) OK
$22DD  20 A1 2D  JSR L_JSR_($2DA1)_($22DD) OK
$22E0  4C CB 22  JMP L_JMP_($22CB)_($22E0) OK
//------------------------------
L_JMP_($22E3)_($2B7C) OK
L_JSR_($22E3)_($2DA6) OK
//------------------------------
$22E3  20 E7 28  JSR L_JSR_($28E7)_($22E3) OK
$22E6  20 9D 25  JSR L_JSR_($259D)_($22E6) OK
$22E9            .byte $00,$B8,$03,$FF
//------------------------------
L_JMP_($22ED)_($22FC) OK
//------------------------------
$22ED  A2 01     LDX #$01
$22EF  4C 1A 23  JMP L_JMP_($231A)_($22EF) OK
//------------------------------
L_JSR_($22F2)_($2DB2) OK
//------------------------------
$22F2  20 E7 28  JSR L_JSR_($28E7)_($22F2) OK
$22F5  20 9D 25  JSR L_JSR_($259D)_($22F5) OK
$22F8            .byte $00,$C0,$03,$FF
$22FC  4C ED 22  JMP L_JMP_($22ED)_($22FC) OK
//------------------------------
L_JSR_($22FF)_($230B) OK
L_JSR_($22FF)_($23DE) OK
//------------------------------
$22FF  A2 17     LDX #$17
//------------------------------
L_BRS_($2301)_($2308) OK
//------------------------------
$2301  BD 3B 23  LDA $233B,X 
$2304  9D B0 03  STA $03B0,X 
$2307  CA        DEX 
$2308  10 F7     BPL L_BRS_($2301)_($2308) OK
$230A  60        RTS 
//------------------------------
L_JSR_($230B)_($22C3) OK
//------------------------------
$230B  20 FF 22  JSR L_JSR_($22FF)_($230B) OK
$230E  20 E7 28  JSR L_JSR_($28E7)_($230E) OK
$2311  20 9D 25  JSR L_JSR_($259D)_($2311) OK
$2314            .byte $00,$3B,$23,$FF
$2318  A2 03     LDX #$03
//------------------------------
L_JMP_($231A)_($22EF) OK
L_BRS_($231A)_($2335) OK
//------------------------------
$231A  8A        TXA 
$231B  48        PHA 
$231C  20 E9 35  JSR L_JSR_($35E9)_($231C) OK
$231F  20 DA 2F  JSR L_JSR_($2FDA)_($231F) OK
$2322  20 5A 30  JSR L_JSR_($305A)_($2322) OK
$2325  A5 00     LDA $00 
$2327  18        CLC 
$2328  69 08     ADC #$08
$232A  85 00     STA $00 
$232C  A5 01     LDA $01 
$232E  69 00     ADC #$00
$2330  85 01     STA $01 
$2332  68        PLA 
$2333  AA        TAX 
$2334  CA        DEX 
$2335  D0 E3     BNE L_BRS_($231A)_($2335) OK
$2337  20 F0 28  JSR L_JSR_($28F0)_($2337) OK
$233A  60        RTS 
//------------------------------
$233B            .byte $09,$70,$00,$AF,$01,$00,$00,$1C
$2343            .byte $04,$20,$00,$3F,$00,$01,$10,$18
$234B            .byte $04,$50,$00,$5F,$01,$01,$08,$18
$2353            .byte $02,$50,$00,$AF,$00,$01,$00,$00
//------------------------------
L_JSR_($235B)_($22C8) OK
L_JSR_($235B)_($29CA) OK
L_JSR_($235B)_($2E6E) OK
//------------------------------
$235B  A2 07     LDX #$07
//------------------------------
L_BRS_($235D)_($2364) OK
//------------------------------
$235D  BD 53 23  LDA $2353,X 
$2360  9D 80 03  STA $0380,X 
$2363  CA        DEX 
$2364  10 F7     BPL L_BRS_($235D)_($2364) OK
$2366  AD D3 1F  LDA $1FD3 
$2369  29 01     AND #$01
$236B  F0 62     BEQ L_BRS_($23CF)_($236B) OK
$236D  A9 FF     LDA #$FF
//------------------------------
L_JMP_($236F)_($23D1) OK
//------------------------------
$236F  85 5D     STA $5D 
$2371  C6 5A     DEC $5A 
//------------------------------
L_JSR_($2373)_($22DA) OK
L_JSR_($2373)_($2EA6) OK
//------------------------------
$2373  20 9D 25  JSR L_JSR_($259D)_($2373) OK
$2376            .byte $04,$20,$14,$FF
$237A  20 B6 23  JSR L_JSR_($23B6)_($237A) OK
$237D  F0 23     BEQ L_BRS_($23A2)_($237D) OK
$237F  20 8E 23  JSR L_JSR_($238E)_($237F) OK
//------------------------------
L_JMP_($2382)_($23A5) OK
//------------------------------
$2382  20 9D 25  JSR L_JSR_($259D)_($2382) OK
$2385            .byte $04,$A0,$19,$FF
$2389  20 C0 23  JSR L_JSR_($23C0)_($2389) OK
$238C  F0 1A     BEQ L_BRS_($23A8)_($238C) OK
//------------------------------
L_JSR_($238E)_($237F) OK
//------------------------------
$238E  18        CLC 
$238F  69 70     ADC #$70
$2391  85 06     STA $06 
$2393  20 95 35  JSR L_JSR_($3595)_($2393) OK
$2396  20 9D 25  JSR L_JSR_($259D)_($2396) OK
$2399            .byte $06,$C7,$23,$FF
$239D  A0 07     LDY #$07
$239F  4C B6 35  JMP L_JMP_($35B6)_($239F) OK
//------------------------------
L_BRS_($23A2)_($237D) OK
//------------------------------
$23A2  20 A8 23  JSR L_JSR_($23A8)_($23A2) OK
$23A5  4C 82 23  JMP L_JMP_($2382)_($23A5) OK
//------------------------------
L_BRS_($23A8)_($238C) OK
L_JSR_($23A8)_($23A2) OK
//------------------------------
$23A8  A9 60     LDA #$60
$23AA  85 06     STA $06 
$23AC  20 95 35  JSR L_JSR_($3595)_($23AC) OK
$23AF  A9 60     LDA #$60
$23B1  85 06     STA $06 
$23B3  4C 95 35  JMP L_JMP_($3595)_($23B3) OK
//------------------------------
L_JSR_($23B6)_($237A) OK
//------------------------------
$23B6  A5 5E     LDA $5E 
$23B8  D0 03     BNE L_BRS_($23BD)_($23B8) OK
//------------------------------
L_JMP_($23BA)_($23C4) OK
//------------------------------
$23BA  A5 5A     LDA $5A 
$23BC  60        RTS 
//------------------------------
L_BRS_($23BD)_($23B8) OK
L_BRS_($23BD)_($23C2) OK
//------------------------------
$23BD  A5 5C     LDA $5C 
$23BF  60        RTS 
//------------------------------
L_JSR_($23C0)_($2389) OK
//------------------------------
$23C0  A5 5E     LDA $5E 
$23C2  F0 F9     BEQ L_BRS_($23BD)_($23C2) OK
$23C4  4C BA 23  JMP L_JMP_($23BA)_($23C4) OK
$23C7            .byte $18,$24,$3C,$7E,$5A,$3C,$3C,$66
//------------------------------
L_BRS_($23CF)_($236B) OK
//------------------------------
$23CF  A9 7F     LDA #$7F
$23D1  4C 6F 23  JMP L_JMP_($236F)_($23D1) OK
//------------------------------
L_JSR_($23D4)_($25D7) OK
//------------------------------
$23D4  A0 02     LDY #$02
//------------------------------
L_BRS_($23D6)_($23E5) OK
//------------------------------
$23D6  A9 00     LDA #$00
$23D8  85 59     STA $59 
$23DA  A9 04     LDA #$04
$23DC  85 5A     STA $5A 
$23DE  20 FF 22  JSR L_JSR_($22FF)_($23DE) OK
$23E1  20 F5 23  JSR L_JSR_($23F5)_($23E1) OK
$23E4  88        DEY 
$23E5  D0 EF     BNE L_BRS_($23D6)_($23E5) OK
$23E7  A9 05     LDA #$05
$23E9  85 5C     STA $5C 
$23EB  AD D3 1F  LDA $1FD3 
$23EE  29 01     AND #$01
$23F0  D0 02     BNE L_BRS_($23F4)_($23F0) OK
$23F2  85 5C     STA $5C 
//------------------------------
L_BRS_($23F4)_($23F0) OK
//------------------------------
$23F4  60        RTS 
//------------------------------
L_JSR_($23F5)_($23E1) OK
L_JSR_($23F5)_($29DB) OK
//------------------------------
$23F5  A2 01     LDX #$01
//------------------------------
L_BRS_($23F7)_($2402) OK
//------------------------------
$23F7  B5 59     LDA $59,X 
$23F9  48        PHA 
$23FA  B5 5B     LDA $5B,X 
$23FC  95 59     STA $59,X 
$23FE  68        PLA 
$23FF  95 5B     STA $5B,X 
$2401  CA        DEX 
$2402  10 F3     BPL L_BRS_($23F7)_($2402) OK
$2404  A2 17     LDX #$17
//------------------------------
L_BRS_($2406)_($2413) OK
//------------------------------
$2406  BD B0 03  LDA $03B0,X 
$2409  48        PHA 
$240A  B5 28     LDA $28,X 
$240C  9D B0 03  STA $03B0,X 
$240F  68        PLA 
$2410  95 28     STA $28,X 
$2412  CA        DEX 
$2413  10 F1     BPL L_BRS_($2406)_($2413) OK
$2415  60        RTS 
//------------------------------
L_JSR_($2416)_($2079) OK
L_JSR_($2416)_($20E3) OK
L_JSR_($2416)_($22BA) OK
L_JSR_($2416)_($22D7) OK
L_JSR_($2416)_($298A) OK
L_JSR_($2416)_($29E7) OK
//------------------------------
$2416  20 5C 35  JSR L_JSR_($355C)_($2416) OK
$2419  20 6C 35  JSR L_JSR_($356C)_($2419) OK
$241C  20 71 24  JSR L_JSR_($2471)_($241C) OK
$241F  20 91 24  JSR L_JSR_($2491)_($241F) OK
$2422  20 81 24  JSR L_JSR_($2481)_($2422) OK
//------------------------------
L_JSR_($2425)_($335E) OK
//------------------------------
$2425  A2 00     LDX #$00
$2427  A0 03     LDY #$03
//------------------------------
L_BRS_($2429)_($244D) OK
//------------------------------
$2429  BD 65 24  LDA $2465,X 
$242C  85 04     STA $04 
$242E  E8        INX 
$242F  BD 65 24  LDA $2465,X 
$2432  85 05     STA $05 
$2434  E8        INX 
$2435  BD 65 24  LDA $2465,X 
$2438  85 0E     STA $0E 
$243A  E8        INX 
$243B  BD 65 24  LDA $2465,X 
$243E  85 0F     STA $0F 
$2440  E8        INX 
$2441  8A        TXA 
$2442  48        PHA 
$2443  98        TYA 
$2444  48        PHA 
$2445  20 CC 34  JSR L_JSR_($34CC)_($2445) OK
$2448  68        PLA 
$2449  A8        TAY 
$244A  68        PLA 
$244B  AA        TAX 
$244C  88        DEY 
$244D  D0 DA     BNE L_BRS_($2429)_($244D) OK
$244F  60        RTS 
//------------------------------
$2450            .byte $01,$60,$71,$55,$50,$60,$E0,$07
$2458            .byte $60,$60,$48,$49,$60,$E0,$01,$60
$2460            .byte $60,$72,$55,$50,$E0,$00,$00,$50
$2468            .byte $24,$40,$00,$57,$24,$80,$00,$5E
$2470            .byte $24
//------------------------------
L_JSR_($2471)_($241C) OK
L_JMP_($2471)_($308B) OK
L_JSR_($2471)_($3361) OK
//------------------------------
$2471  20 9D 25  JSR L_JSR_($259D)_($2471) OK
$2474            .byte $04,$08,$10,$0E,$51,$00,$02,$03
$247C            .byte $00,$FF
$247E  4C A4 34  JMP L_JMP_($34A4)_($247E) OK
//------------------------------
L_JSR_($2481)_($2422) OK
L_JMP_($2481)_($308E) OK
L_JSR_($2481)_($3364) OK
//------------------------------
$2481  20 9D 25  JSR L_JSR_($259D)_($2481) OK
$2484            .byte $04,$08,$1B,$0E,$54,$00,$02,$03
$248C            .byte $00,$FF
$248E  4C A4 34  JMP L_JMP_($34A4)_($248E) OK
//------------------------------
L_JSR_($2491)_($241F) OK
//------------------------------
$2491  20 9D 25  JSR L_JSR_($259D)_($2491) OK
$2494            .byte $04,$88,$15,$0E,$D0,$1F,$02,$03
$249C            .byte $00,$FF
$249E  4C A4 34  JMP L_JMP_($34A4)_($249E) OK
//------------------------------
L_JSR_($24A1)_($24C0) OK
L_JSR_($24A1)_($24C7) OK
//------------------------------
$24A1  20 A4 24  JSR L_JSR_($24A4)_($24A1) OK
//------------------------------
L_JSR_($24A4)_($24A1) OK
//------------------------------
$24A4  48        PHA 
$24A5  29 01     AND #$01
$24A7  D0 09     BNE L_BRS_($24B2)_($24A7) OK
$24A9  A5 58     LDA $58 
$24AB  4A        LSR A 
$24AC  4A        LSR A 
$24AD  4A        LSR A 
$24AE  29 01     AND #$01
$24B0  09 80     ORA #$80
//------------------------------
L_BRS_($24B2)_($24A7) OK
//------------------------------
$24B2  95 45     STA $45,X 
$24B4  68        PLA 
$24B5  49 01     EOR #$01
$24B7  E8        INX 
$24B8  60        RTS 
//------------------------------
L_JSR_($24B9)_($20D4) OK
//------------------------------
$24B9  A2 00     LDX #$00
$24BB  AD D3 1F  LDA $1FD3 
$24BE  29 01     AND #$01
$24C0  20 A1 24  JSR L_JSR_($24A1)_($24C0) OK
$24C3  AD D3 1F  LDA $1FD3 
$24C6  4A        LSR A 
$24C7  20 A1 24  JSR L_JSR_($24A1)_($24C7) OK
$24CA  20 9D 25  JSR L_JSR_($259D)_($24CA) OK
$24CD            .byte $04,$08,$20,$0E,$3A,$25,$FF
$24D4  20 CC 34  JSR L_JSR_($34CC)_($24D4) OK
$24D7  20 9D 25  JSR L_JSR_($259D)_($24D7) OK
$24DA            .byte $04,$08,$A8,$0E,$24,$25,$FF
$24E1  20 CC 34  JSR L_JSR_($34CC)_($24E1) OK
$24E4  20 9D 25  JSR L_JSR_($259D)_($24E4) OK
$24E7            .byte $0E,$50,$25,$FF
$24EB  A9 00     LDA #$00
$24ED  85 08     STA $08 
//------------------------------
L_BRS_($24EF)_($251C) OK
//------------------------------
$24EF  A9 18     LDA #$18
$24F1  85 04     STA $04 
$24F3  A6 08     LDX $08 
$24F5  BD 1F 25  LDA $251F,X 
$24F8  85 05     STA $05 
$24FA  20 F7 34  JSR L_JSR_($34F7)_($24FA) OK
$24FD  20 1D 35  JSR L_JSR_($351D)_($24FD) OK
$2500  A0 00     LDY #$00
$2502  A6 08     LDX $08 
$2504  B5 45     LDA $45,X 
$2506  20 D6 34  JSR L_JSR_($34D6)_($2506) OK
$2509  C8        INY 
$250A  98        TYA 
$250B  18        CLC 
$250C  65 0E     ADC $0E 
$250E  85 0E     STA $0E 
$2510  A5 0F     LDA $0F 
$2512  69 00     ADC #$00
$2514  85 0F     STA $0F 
$2516  E6 08     INC $08 
$2518  A5 08     LDA $08 
$251A  C9 05     CMP #$05
$251C  D0 D1     BNE L_BRS_($24EF)_($251C) OK
$251E  60        RTS 
//------------------------------
$251F            .byte $38,$48,$58,$68,$90,$01,$43,$4F
$2527            .byte $50,$59,$52,$49,$47,$48,$54,$60
$252F            .byte $71,$79,$78,$73,$60,$41,$6E,$43
$2537            .byte $6E,$47,$EE,$01,$4A,$45,$54,$50
$253F            .byte $41,$43,$60,$47,$41,$4D,$45,$60
$2547            .byte $53,$45,$4C,$45,$43,$54,$49,$4F
$254F            .byte $CE,$00,$46,$71,$60,$60,$71,$60
$2557            .byte $50,$4C,$41,$59,$45,$52,$60,$47
$255F            .byte $41,$4D,$C5,$00,$46,$73,$60,$60
$2567            .byte $72,$60,$50,$4C,$41,$59,$45,$52
$256F            .byte $60,$47,$41,$4D,$C5,$00,$46,$75
$2577            .byte $60,$60,$4B,$45,$59,$42,$4F,$41
$257F            .byte $52,$C4,$00,$46,$77,$60,$60,$4A
$2587            .byte $4F,$59,$53,$54,$49,$43,$CB,$00
$258F            .byte $53,$50,$60,$60,$53,$54,$41,$52
$2597            .byte $54,$60,$47,$41,$4D,$C5
//------------------------------
L_JSR_($259D)_($20F0) OK
L_JSR_($259D)_($2202) OK
L_JSR_($259D)_($22E6) OK
L_JSR_($259D)_($22F5) OK
L_JSR_($259D)_($2311) OK
L_JSR_($259D)_($2373) OK
L_JSR_($259D)_($2382) OK
L_JSR_($259D)_($2396) OK
L_JSR_($259D)_($2471) OK
L_JSR_($259D)_($2481) OK
L_JSR_($259D)_($2491) OK
L_JSR_($259D)_($24CA) OK
L_JSR_($259D)_($24D7) OK
L_JSR_($259D)_($24E4) OK
L_JSR_($259D)_($2676) OK
L_JSR_($259D)_($277A) OK
L_JSR_($259D)_($2787) OK
L_JSR_($259D)_($2867) OK
L_JSR_($259D)_($29EE) OK
L_JSR_($259D)_($29FB) OK
L_JSR_($259D)_($2A12) OK
L_JSR_($259D)_($2A48) OK
L_JSR_($259D)_($2BCA) OK
L_JSR_($259D)_($2DB8) OK
L_JSR_($259D)_($2E8F) OK
L_JSR_($259D)_($2FF9) OK
L_JSR_($259D)_($3067) OK
L_JSR_($259D)_($3091) OK
L_JSR_($259D)_($3469) OK
L_JSR_($259D)_($349A) OK
L_JSR_($259D)_($355C) OK
L_JSR_($259D)_($356C) OK
//------------------------------
$259D  68        PLA 
$259E  85 40     STA $40 
$25A0  68        PLA 
$25A1  85 41     STA $41 
$25A3  A0 01     LDY #$01
//------------------------------
L_JMP_($25A5)_($25C7) OK
//------------------------------
$25A5  B1 40     LDA ($40),Y 
$25A7  C9 FF     CMP #$FF
$25A9  D0 0A     BNE L_BRS_($25B5)_($25A9) OK
$25AB  20 CA 25  JSR L_JSR_($25CA)_($25AB) OK
$25AE  A5 41     LDA $41 
$25B0  48        PHA 
$25B1  A5 40     LDA $40 
$25B3  48        PHA 
$25B4  60        RTS 
//------------------------------
L_BRS_($25B5)_($25A9) OK
//------------------------------
$25B5  AA        TAX 
$25B6  20 CA 25  JSR L_JSR_($25CA)_($25B6) OK
$25B9  B1 40     LDA ($40),Y 
$25BB  95 00     STA $00,X 
$25BD  20 CA 25  JSR L_JSR_($25CA)_($25BD) OK
$25C0  B1 40     LDA ($40),Y 
$25C2  95 01     STA $01,X 
$25C4  20 CA 25  JSR L_JSR_($25CA)_($25C4) OK
$25C7  4C A5 25  JMP L_JMP_($25A5)_($25C7) OK
//------------------------------
L_JSR_($25CA)_($25AB) OK
L_JSR_($25CA)_($25B6) OK
L_JSR_($25CA)_($25BD) OK
L_JSR_($25CA)_($25C4) OK
//------------------------------
$25CA  E6 40     INC $40 
$25CC  D0 02     BNE L_BRS_($25D0)_($25CC) OK
$25CE  E6 41     INC $41 
//------------------------------
L_BRS_($25D0)_($25CC) OK
//------------------------------
$25D0  60        RTS 
//------------------------------
L_JMP_($25D1)_($20E6) OK
//------------------------------
$25D1  20 64 27  JSR L_JSR_($2764)_($25D1) OK
$25D4  20 5B 27  JSR L_JSR_($275B)_($25D4) OK
$25D7  20 D4 23  JSR L_JSR_($23D4)_($25D7) OK
$25DA  20 BA 22  JSR L_JSR_($22BA)_($25DA) OK
$25DD  4C FA 25  JMP L_JMP_($25FA)_($25DD) OK
$25E0  A9 01     LDA #$01
$25E2  85 20     STA $20 
$25E4  20 5E 26  JSR L_JSR_($265E)_($25E4) OK
$25E7  AD 04 90  LDA $9004 
$25EA  65 4C     ADC $4C 
$25EC  85 4C     STA $4C 
$25EE  E6 4A     INC $4A 
$25F0  D0 02     BNE L_BRS_($25F4)_($25F0) OK
$25F2  E6 4B     INC $4B 
//------------------------------
L_BRS_($25F4)_($25F0) OK
//------------------------------
$25F4  68        PLA 
$25F5  A8        TAY 
$25F6  68        PLA 
$25F7  AA        TAX 
$25F8  68        PLA 
$25F9  40        RTI 
//------------------------------
L_JMP_($25FA)_($25DD) OK
L_JMP_($25FA)_($265B) OK
//------------------------------
$25FA  A9 00     LDA #$00
$25FC  85 21     STA $21 
$25FE  A9 B0     LDA #$B0
$2600  85 00     STA $00 
$2602  A9 03     LDA #$03
$2604  85 01     STA $01 
$2606  58        CLI 
//------------------------------
L_BRS_($2607)_($2643) OK
L_JMP_($2607)_($267D) OK
//------------------------------
$2607  A0 00     LDY #$00
$2609  B1 00     LDA ($00),Y 
$260B  0A        ASL A 
$260C  A8        TAY 
$260D  B9 8C 26  LDA $268C,Y 
$2610  85 5F     STA $5F 
$2612  B9 8D 26  LDA $268D,Y 
$2615  85 60     STA $60 
$2617  6C 5F 00  JMP ($005F) 
//------------------------------
L_JMP_($261A)_($2226) OK
L_JMP_($261A)_($2254) OK
L_JMP_($261A)_($26EF) OK
L_JMP_($261A)_($2964) OK
L_JMP_($261A)_($2984) OK
L_JMP_($261A)_($29CD) OK
L_JMP_($261A)_($2C8F) OK
L_JMP_($261A)_($2CC9) OK
L_JMP_($261A)_($2E4B) OK
L_JMP_($261A)_($2EA9) OK
L_JMP_($261A)_($2EFA) OK
L_JMP_($261A)_($2F04) OK
L_JMP_($261A)_($2F74) OK
L_JMP_($261A)_($2FD7) OK
L_JMP_($261A)_($3309) OK
L_JMP_($261A)_($3367) OK
//------------------------------
$261A  A0 00     LDY #$00
$261C  B1 00     LDA ($00),Y 
$261E  D0 10     BNE L_BRS_($2630)_($261E) OK
$2620  A5 00     LDA $00 
$2622  C9 B0     CMP #$B0
$2624  90 0A     BCC L_BRS_($2630)_($2624) OK
$2626  A0 02     LDY #$02
$2628  A2 00     LDX #$00
//------------------------------
L_BRS_($262A)_($262B) OK
L_BRS_($262A)_($262E) OK
//------------------------------
$262A  CA        DEX 
$262B  D0 FD     BNE L_BRS_($262A)_($262B) OK
$262D  88        DEY 
$262E  D0 FA     BNE L_BRS_($262A)_($262E) OK
//------------------------------
L_BRS_($2630)_($261E) OK
L_BRS_($2630)_($2624) OK
//------------------------------
$2630  A5 00     LDA $00 
$2632  18        CLC 
$2633  69 08     ADC #$08
$2635  85 00     STA $00 
$2637  A5 20     LDA $20 
$2639  D0 2E     BNE L_BRS_($2669)_($2639) OK
//------------------------------
L_JMP_($263B)_($2689) OK
//------------------------------
$263B  A5 00     LDA $00 
$263D  C9 B0     CMP #$B0
$263F  F0 3F     BEQ L_BRS_($2680)_($263F) OK
$2641  25 00     AND $00
$2643  D0 C2     BNE L_BRS_($2607)_($2643) OK
$2645  A5 21     LDA $21 
$2647  C9 04     CMP #$04
$2649  90 07     BCC L_BRS_($2652)_($2649) OK
$264B  AD 04 90  LDA $9004 
$264E  29 07     AND #$07
$2650  D0 03     BNE L_BRS_($2655)_($2650) OK
//------------------------------
L_BRS_($2652)_($2649) OK
//------------------------------
$2652  20 D6 2C  JSR L_JSR_($2CD6)_($2652) OK
//------------------------------
L_BRS_($2655)_($2650) OK
//------------------------------
$2655  20 4B 2B  JSR L_JSR_($2B4B)_($2655) OK
$2658  20 8F 2B  JSR L_JSR_($2B8F)_($2658) OK
$265B  4C FA 25  JMP L_JMP_($25FA)_($265B) OK
//------------------------------
L_JSR_($265E)_($2041) OK
L_JSR_($265E)_($25E4) OK
//------------------------------
$265E  A9 D7     LDA #$D7
$2660  8D 24 91  STA $9124 
$2663  A9 4F     LDA #$4F
$2665  8D 25 91  STA $9125 
$2668  60        RTS 
//------------------------------
L_BRS_($2669)_($2639) OK
//------------------------------
$2669  78        SEI 
$266A  A9 00     LDA #$00
$266C  85 20     STA $20 
$266E  A5 00     LDA $00 
$2670  85 22     STA $22 
$2672  A5 01     LDA $01 
$2674  85 23     STA $23 
$2676  20 9D 25  JSR L_JSR_($259D)_($2676) OK
$2679            .byte $00,$80,$03,$FF
$267D  4C 07 26  JMP L_JMP_($2607)_($267D) OK
//------------------------------
L_BRS_($2680)_($263F) OK
//------------------------------
$2680  A5 22     LDA $22 
$2682  85 00     STA $00 
$2684  A5 23     LDA $23 
$2686  85 01     STA $01 
$2688  58        CLI 
$2689  4C 3B 26  JMP L_JMP_($263B)_($2689) OK
$268C            .byte $1A,$26,$73,$32,$4D,$33,$34,$29
$2694            .byte $8E,$2F,$6A,$2C,$BC,$2A,$6D,$2A
$269C            .byte $5F,$2A,$74,$2E,$17,$2E,$4E,$2E
$26A4            .byte $CD,$26,$1A,$26,$3E,$28,$1A,$26
$26AC            .byte $9A,$21
//------------------------------
L_JMP_($26AE)_($22CE) OK
//------------------------------
$26AE  A2 07     LDX #$07
//------------------------------
L_BRS_($26B0)_($26B7) OK
//------------------------------
$26B0  BD C5 26  LDA $26C5,X 
$26B3  9D A8 03  STA $03A8,X 
$26B6  CA        DEX 
$26B7  10 F7     BPL L_BRS_($26B0)_($26B7) OK
$26B9  A9 00     LDA #$00
$26BB  8D 0A 90  STA $900A 
$26BE  8D 0B 90  STA $900B 
$26C1  8D 0C 90  STA $900C 
$26C4  60        RTS 
//------------------------------
$26C5            .byte $0C,$00,$00,$00,$00,$00,$00,$00
$26CD  A9 01     LDA #$01
$26CF  85 60     STA $60 
//------------------------------
L_BRS_($26D1)_($26ED) OK
//------------------------------
$26D1  A4 60     LDY $60 
$26D3  B1 00     LDA ($00),Y 
$26D5  0A        ASL A 
$26D6  AA        TAX 
$26D7  BD 43 27  LDA $2743,X 
$26DA  85 08     STA $08 
$26DC  BD 44 27  LDA $2744,X 
$26DF  85 09     STA $09 
$26E1  6C 08 00  JMP ($0008) 
//------------------------------
L_JMP_($26E4)_($2719) OK
//------------------------------
$26E4  A5 60     LDA $60 
$26E6  18        CLC 
$26E7  69 02     ADC #$02
$26E9  85 60     STA $60 
$26EB  C9 07     CMP #$07
$26ED  90 E2     BCC L_BRS_($26D1)_($26ED) OK
$26EF  4C 1A 26  JMP L_JMP_($261A)_($26EF) OK
//------------------------------
L_JSR_($26F2)_($26FE) OK
L_JSR_($26F2)_($271C) OK
L_JSR_($26F2)_($2727) OK
L_JSR_($26F2)_($2735) OK
L_JSR_($26F2)_($274F) OK
//------------------------------
$26F2  A5 60     LDA $60 
$26F4  A8        TAY 
$26F5  C8        INY 
$26F6  B1 00     LDA ($00),Y 
$26F8  38        SEC 
$26F9  E9 01     SBC #$01
$26FB  91 00     STA ($00),Y 
$26FD  60        RTS 
//------------------------------
$26FE  20 F2 26  JSR L_JSR_($26F2)_($26FE) OK
$2701  F0 07     BEQ L_BRS_($270A)_($2701) OK
$2703  49 FF     EOR #$FF
//------------------------------
L_JMP_($2705)_($2724) OK
L_JMP_($2705)_($2732) OK
L_JMP_($2705)_($2740) OK
L_JMP_($2705)_($2758) OK
//------------------------------
$2705  09 80     ORA #$80
$2707  4C 10 27  JMP L_JMP_($2710)_($2707) OK
//------------------------------
L_BRS_($270A)_($2701) OK
L_BRS_($270A)_($271F) OK
L_BRS_($270A)_($272A) OK
L_BRS_($270A)_($2738) OK
L_BRS_($270A)_($2752) OK
//------------------------------
$270A  A9 00     LDA #$00
$270C  88        DEY 
$270D  91 00     STA ($00),Y 
$270F  C8        INY 
//------------------------------
L_JMP_($2710)_($2707) OK
//------------------------------
$2710  48        PHA 
$2711  98        TYA 
$2712  4A        LSR A 
$2713  AA        TAX 
$2714  CA        DEX 
$2715  68        PLA 
$2716  9D 0A 90  STA $900A,X 
$2719  4C E4 26  JMP L_JMP_($26E4)_($2719) OK
$271C  20 F2 26  JSR L_JSR_($26F2)_($271C) OK
$271F  F0 E9     BEQ L_BRS_($270A)_($271F) OK
$2721  0A        ASL A 
$2722  49 F3     EOR #$F3
$2724  4C 05 27  JMP L_JMP_($2705)_($2724) OK
$2727  20 F2 26  JSR L_JSR_($26F2)_($2727) OK
$272A  F0 DE     BEQ L_BRS_($270A)_($272A) OK
$272C  0A        ASL A 
$272D  0A        ASL A 
$272E  0A        ASL A 
$272F  0A        ASL A 
$2730  09 0F     ORA #$0F
$2732  4C 05 27  JMP L_JMP_($2705)_($2732) OK
$2735  20 F2 26  JSR L_JSR_($26F2)_($2735) OK
$2738  F0 D0     BEQ L_BRS_($270A)_($2738) OK
$273A  AD B3 03  LDA $03B3 
$273D  4A        LSR A 
$273E  49 FE     EOR #$FE
$2740  4C 05 27  JMP L_JMP_($2705)_($2740) OK
$2743            .byte $E4,$26,$FE,$26,$1C,$27,$27,$27
$274B            .byte $35,$27,$4F,$27
$274F  20 F2 26  JSR L_JSR_($26F2)_($274F) OK
$2752  F0 B6     BEQ L_BRS_($270A)_($2752) OK
$2754  0A        ASL A 
$2755  0A        ASL A 
$2756  49 E3     EOR #$E3
$2758  4C 05 27  JMP L_JMP_($2705)_($2758) OK
//------------------------------
L_JSR_($275B)_($202F) OK
L_JSR_($275B)_($25D4) OK
//------------------------------
$275B  A2 00     LDX #$00
$275D  8A        TXA 
//------------------------------
L_BRS_($275E)_($2761) OK
//------------------------------
$275E  95 00     STA $00,X 
$2760  E8        INX 
$2761  D0 FB     BNE L_BRS_($275E)_($2761) OK
$2763  60        RTS 
//------------------------------
L_JSR_($2764)_($25D1) OK
//------------------------------
$2764  A2 7F     LDX #$7F
$2766  A9 00     LDA #$00
//------------------------------
L_BRS_($2768)_($276C) OK
//------------------------------
$2768  9D 80 03  STA $0380,X 
$276B  CA        DEX 
$276C  10 FA     BPL L_BRS_($2768)_($276C) OK
$276E  60        RTS 
//------------------------------
L_JSR_($276F)_($202C) OK
//------------------------------
$276F  A2 2F     LDX #$2F
$2771  A9 00     LDA #$00
//------------------------------
L_BRS_($2773)_($2777) OK
//------------------------------
$2773  9D D0 1F  STA $1FD0,X 
$2776  CA        DEX 
$2777  10 FA     BPL L_BRS_($2773)_($2777) OK
$2779  60        RTS 
//------------------------------
L_JSR_($277A)_($2987) OK
//------------------------------
$277A  20 9D 25  JSR L_JSR_($259D)_($277A) OK
$277D            .byte $00,$D0,$1F,$08,$51,$00,$FF
$2784  20 8E 27  JSR L_JSR_($278E)_($2784) OK
$2787  20 9D 25  JSR L_JSR_($259D)_($2787) OK
$278A            .byte $08,$54,$00,$FF
//------------------------------
L_JSR_($278E)_($2784) OK
//------------------------------
$278E  A0 00     LDY #$00
//------------------------------
L_BRS_($2790)_($279D) OK
//------------------------------
$2790  B1 00     LDA ($00),Y 
$2792  D1 08     CMP ($08),Y 
$2794  F0 03     BEQ L_BRS_($2799)_($2794) OK
$2796  90 08     BCC L_BRS_($27A0)_($2796) OK
$2798  60        RTS 
//------------------------------
L_BRS_($2799)_($2794) OK
//------------------------------
$2799  C8        INY 
$279A  98        TYA 
$279B  C9 03     CMP #$03
$279D  D0 F1     BNE L_BRS_($2790)_($279D) OK
$279F  60        RTS 
//------------------------------
L_BRS_($27A0)_($2796) OK
//------------------------------
$27A0  A0 02     LDY #$02
//------------------------------
L_BRS_($27A2)_($27A7) OK
//------------------------------
$27A2  B1 08     LDA ($08),Y 
$27A4  91 00     STA ($00),Y 
$27A6  88        DEY 
$27A7  10 F9     BPL L_BRS_($27A2)_($27A7) OK
$27A9  60        RTS 
//------------------------------
L_JSR_($27AA)_($2EAF) OK
//------------------------------
$27AA  A0 00     LDY #$00
$27AC  B1 00     LDA ($00),Y 
$27AE  C9 0A     CMP #$0A
$27B0  B0 01     BCS L_BRS_($27B3)_($27B0) OK
$27B2  60        RTS 
//------------------------------
L_BRS_($27B3)_($27B0) OK
//------------------------------
$27B3  E6 27     INC $27 
$27B5  A5 11     LDA $11 
$27B7  48        PHA 
$27B8  18        CLC 
$27B9  69 15     ADC #$15
$27BB  85 11     STA $11 
$27BD  A5 19     LDA $19 
$27BF  48        PHA 
$27C0  18        CLC 
$27C1  69 15     ADC #$15
$27C3  85 19     STA $19 
$27C5  C9 AF     CMP #$AF
$27C7  F0 50     BEQ L_BRS_($2819)_($27C7) OK
$27C9  B0 47     BCS L_BRS_($2812)_($27C9) OK
$27CB  A5 26     LDA $26 
$27CD  D0 12     BNE L_BRS_($27E1)_($27CD) OK
$27CF  A9 01     LDA #$01
$27D1  85 26     STA $26 
$27D3  A5 27     LDA $27 
$27D5  38        SEC 
$27D6  E9 01     SBC #$01
$27D8  20 2E 28  JSR L_JSR_($282E)_($27D8) OK
$27DB  20 8D 37  JSR L_JSR_($378D)_($27DB) OK
$27DE  20 10 36  JSR L_JSR_($3610)_($27DE) OK
//------------------------------
L_BRS_($27E1)_($27CD) OK
//------------------------------
$27E1  A5 27     LDA $27 
$27E3  48        PHA 
$27E4  20 2E 28  JSR L_JSR_($282E)_($27E4) OK
$27E7  20 3D 37  JSR L_JSR_($373D)_($27E7) OK
$27EA  68        PLA 
$27EB  38        SEC 
$27EC  E9 01     SBC #$01
$27EE  20 2E 28  JSR L_JSR_($282E)_($27EE) OK
$27F1  20 8D 37  JSR L_JSR_($378D)_($27F1) OK
$27F4  20 4C 36  JSR L_JSR_($364C)_($27F4) OK
$27F7  A5 18     LDA $18 
$27F9  85 04     STA $04 
$27FB  A5 19     LDA $19 
$27FD  85 05     STA $05 
$27FF  20 F7 34  JSR L_JSR_($34F7)_($27FF) OK
$2802  A9 02     LDA #$02
$2804  A0 00     LDY #$00
$2806  91 0C     STA ($0C),Y 
$2808  C8        INY 
$2809  91 0C     STA ($0C),Y 
//------------------------------
L_JMP_($280B)_($2816) OK
L_BRS_($280B)_($281B) OK
L_JMP_($280B)_($282B) OK
//------------------------------
$280B  68        PLA 
$280C  85 19     STA $19 
$280E  68        PLA 
$280F  85 11     STA $11 
$2811  60        RTS 
//------------------------------
L_BRS_($2812)_($27C9) OK
//------------------------------
$2812  A9 00     LDA #$00
$2814  85 26     STA $26 
$2816  4C 0B 28  JMP L_JMP_($280B)_($2816) OK
//------------------------------
L_BRS_($2819)_($27C7) OK
//------------------------------
$2819  A5 26     LDA $26 
$281B  F0 EE     BEQ L_BRS_($280B)_($281B) OK
$281D  A5 27     LDA $27 
$281F  38        SEC 
$2820  E9 01     SBC #$01
$2822  20 2E 28  JSR L_JSR_($282E)_($2822) OK
$2825  20 8D 37  JSR L_JSR_($378D)_($2825) OK
$2828  20 10 36  JSR L_JSR_($3610)_($2828) OK
$282B  4C 0B 28  JMP L_JMP_($280B)_($282B) OK
//------------------------------
L_JSR_($282E)_($27D8) OK
L_JSR_($282E)_($27E4) OK
L_JSR_($282E)_($27EE) OK
L_JSR_($282E)_($2822) OK
//------------------------------
$282E  4A        LSR A 
$282F  29 02     AND #$02
$2831  AA        TAX 
$2832  BD 3A 28  LDA $283A,X 
$2835  A8        TAY 
$2836  BD 3B 28  LDA $283B,X 
$2839  60        RTS 
//------------------------------
$283A            .byte $D5,$3F,$F8,$3F
$283E  20 D7 35  JSR L_JSR_($35D7)_($283E) OK
$2841  20 B3 30  JSR L_JSR_($30B3)_($2841) OK
$2844  A5 02     LDA $02 
$2846  30 09     BMI L_BRS_($2851)_($2846) OK
$2848  A0 03     LDY #$03
$284A  B1 00     LDA ($00),Y 
$284C  18        CLC 
$284D  69 02     ADC #$02
$284F  91 00     STA ($00),Y 
//------------------------------
L_BRS_($2851)_($2846) OK
//------------------------------
$2851  20 E9 35  JSR L_JSR_($35E9)_($2851) OK
$2854  20 58 2D  JSR L_JSR_($2D58)_($2854) OK
$2857  10 1B     BPL L_BRS_($2874)_($2857) OK
$2859  A9 00     LDA #$00
$285B  20 DC 2F  JSR L_JSR_($2FDC)_($285B) OK
$285E  20 E5 2F  JSR L_JSR_($2FE5)_($285E) OK
$2861  20 8D 37  JSR L_JSR_($378D)_($2861) OK
$2864  20 10 36  JSR L_JSR_($3610)_($2864) OK
$2867  20 9D 25  JSR L_JSR_($259D)_($2867) OK
$286A            .byte $02,$50,$02,$FF
$286E  20 63 30  JSR L_JSR_($3063)_($286E) OK
$2871  4C 65 2F  JMP L_JMP_($2F65)_($2871) OK
//------------------------------
L_BRS_($2874)_($2857) OK
//------------------------------
$2874  A0 06     LDY #$06
$2876  B1 00     LDA ($00),Y 
$2878  29 0E     AND #$0E
$287A  AA        TAX 
$287B  BD 88 28  LDA $2888,X 
$287E  85 08     STA $08 
$2880  BD 89 28  LDA $2889,X 
$2883  85 09     STA $09 
$2885  6C 08 00  JMP ($0008) 
$2888            .byte $92,$28,$A4,$28,$A4,$28,$9F,$28
$2890            .byte $B6,$28
$2892  A9 07     LDA #$07
//------------------------------
L_JMP_($2894)_($28A1) OK
L_JMP_($2894)_($28AE) OK
L_JMP_($2894)_($28B3) OK
L_BRS_($2894)_($28C2) OK
L_JMP_($2894)_($28C6) OK
//------------------------------
$2894  A0 05     LDY #$05
$2896  91 00     STA ($00),Y 
$2898  A0 06     LDY #$06
$289A  B1 00     LDA ($00),Y 
$289C  4C C3 2F  JMP L_JMP_($2FC3)_($289C) OK
$289F  A9 06     LDA #$06
$28A1  4C 94 28  JMP L_JMP_($2894)_($28A1) OK
$28A4  A5 4A     LDA $4A 
$28A6  29 1F     AND #$1F
$28A8  C9 18     CMP #$18
$28AA  B0 05     BCS L_BRS_($28B1)_($28AA) OK
$28AC  A9 00     LDA #$00
$28AE  4C 94 28  JMP L_JMP_($2894)_($28AE) OK
//------------------------------
L_BRS_($28B1)_($28AA) OK
//------------------------------
$28B1  A9 03     LDA #$03
$28B3  4C 94 28  JMP L_JMP_($2894)_($28B3) OK
$28B6  A5 4A     LDA $4A 
$28B8  4A        LSR A 
$28B9  4A        LSR A 
$28BA  29 07     AND #$07
$28BC  D0 02     BNE L_BRS_($28C0)_($28BC) OK
$28BE  09 01     ORA #$01
//------------------------------
L_BRS_($28C0)_($28BC) OK
//------------------------------
$28C0  C9 05     CMP #$05
$28C2  D0 D0     BNE L_BRS_($2894)_($28C2) OK
$28C4  A9 01     LDA #$01
$28C6  4C 94 28  JMP L_JMP_($2894)_($28C6) OK
//------------------------------
L_JSR_($28C9)_($2E36) OK
//------------------------------
$28C9  A2 47     LDX #$47
$28CB  A9 00     LDA #$00
//------------------------------
L_BRS_($28CD)_($28D1) OK
//------------------------------
$28CD  9D B8 03  STA $03B8,X 
$28D0  CA        DEX 
$28D1  10 FA     BPL L_BRS_($28CD)_($28D1) OK
$28D3  60        RTS 
//------------------------------
L_JSR_($28D4)_($29A8) OK
//------------------------------
$28D4  A2 2F     LDX #$2F
$28D6  A9 00     LDA #$00
//------------------------------
L_BRS_($28D8)_($28DC) OK
//------------------------------
$28D8  9D 80 03  STA $0380,X 
$28DB  CA        DEX 
$28DC  10 FA     BPL L_BRS_($28D8)_($28DC) OK
$28DE  A2 2F     LDX #$2F
//------------------------------
L_BRS_($28E0)_($28E4) OK
//------------------------------
$28E0  9D C8 03  STA $03C8,X 
$28E3  CA        DEX 
$28E4  10 FA     BPL L_BRS_($28E0)_($28E4) OK
$28E6  60        RTS 
//------------------------------
L_JSR_($28E7)_($22E3) OK
L_JSR_($28E7)_($22F2) OK
L_JSR_($28E7)_($230E) OK
L_JSR_($28E7)_($2A45) OK
L_JSR_($28E7)_($2BC7) OK
L_JSR_($28E7)_($2DB5) OK
L_JSR_($28E7)_($2E8C) OK
//------------------------------
$28E7  A5 00     LDA $00 
$28E9  85 24     STA $24 
$28EB  A5 01     LDA $01 
$28ED  85 25     STA $25 
$28EF  60        RTS 
//------------------------------
L_JSR_($28F0)_($2337) OK
L_JMP_($28F0)_($2A5C) OK
L_JMP_($28F0)_($2BDB) OK
L_JMP_($28F0)_($2DC2) OK
L_JSR_($28F0)_($2EA1) OK
//------------------------------
$28F0  A5 24     LDA $24 
$28F2  85 00     STA $00 
$28F4  A5 25     LDA $25 
$28F6  85 01     STA $01 
$28F8  60        RTS 
//------------------------------
L_JSR_($28F9)_($2C8C) OK
//------------------------------
$28F9  20 0D 36  JSR L_JSR_($360D)_($28F9) OK
$28FC  A9 00     LDA #$00
$28FE  A0 02     LDY #$02
$2900  91 00     STA ($00),Y 
$2902  A0 00     LDY #$00
$2904  B1 00     LDA ($00),Y 
$2906  29 C0     AND #$C0
$2908  09 03     ORA #$03
//------------------------------
L_JSR_($290A)_($2A59) OK
//------------------------------
$290A  A0 06     LDY #$06
$290C  91 00     STA ($00),Y 
$290E  A0 00     LDY #$00
$2910  A9 03     LDA #$03
$2912  91 00     STA ($00),Y 
$2914  98        TYA 
$2915  A0 04     LDY #$04
$2917  91 00     STA ($00),Y 
$2919  A5 4C     LDA $4C 
$291B  29 07     AND #$07
$291D  D0 02     BNE L_BRS_($2921)_($291D) OK
$291F  09 01     ORA #$01
//------------------------------
L_BRS_($2921)_($291D) OK
//------------------------------
$2921  C9 05     CMP #$05
$2923  D0 02     BNE L_BRS_($2927)_($2923) OK
$2925  A9 06     LDA #$06
//------------------------------
L_BRS_($2927)_($2923) OK
//------------------------------
$2927  A0 05     LDY #$05
$2929  91 00     STA ($00),Y 
$292B  A9 05     LDA #$05
$292D  8D AB 03  STA $03AB 
$2930  8D AC 03  STA $03AC 
$2933  60        RTS 
//------------------------------
$2934  E6 21     INC $21 
$2936  20 E9 35  JSR L_JSR_($35E9)_($2936) OK
$2939  A0 02     LDY #$02
$293B  B1 00     LDA ($00),Y 
$293D  25 4A     AND $4A
$293F  D0 09     BNE L_BRS_($294A)_($293F) OK
$2941  A0 04     LDY #$04
$2943  B1 00     LDA ($00),Y 
$2945  18        CLC 
$2946  69 01     ADC #$01
$2948  91 00     STA ($00),Y 
//------------------------------
L_BRS_($294A)_($293F) OK
//------------------------------
$294A  A0 04     LDY #$04
$294C  B1 00     LDA ($00),Y 
$294E  C9 07     CMP #$07
$2950  B0 23     BCS L_BRS_($2975)_($2950) OK
$2952  0A        ASL A 
$2953  AA        TAX 
$2954  BD 67 29  LDA $2967,X 
$2957  A8        TAY 
$2958  BD 68 29  LDA $2968,X 
$295B  20 3D 37  JSR L_JSR_($373D)_($295B) OK
$295E  20 04 36  JSR L_JSR_($3604)_($295E) OK
$2961  20 1F 38  JSR L_JSR_($381F)_($2961) OK
$2964  4C 1A 26  JMP L_JMP_($261A)_($2964) OK
$2967            .byte $74,$3F,$74,$3F,$9B,$3F,$B2,$3F
$296F            .byte $74,$3F,$9B,$3F,$B2,$3F
//------------------------------
L_BRS_($2975)_($2950) OK
//------------------------------
$2975  A0 00     LDY #$00
$2977  98        TYA 
$2978  91 00     STA ($00),Y 
$297A  A0 06     LDY #$06
$297C  B1 00     LDA ($00),Y 
$297E  29 3F     AND #$3F
$2980  C9 03     CMP #$03
$2982  90 19     BCC L_BRS_($299D)_($2982) OK
$2984  4C 1A 26  JMP L_JMP_($261A)_($2984) OK
//------------------------------
L_BRS_($2987)_($29C5) OK
//------------------------------
$2987  20 7A 27  JSR L_JSR_($277A)_($2987) OK
$298A  20 16 24  JSR L_JSR_($2416)_($298A) OK
$298D  A5 5E     LDA $5E 
$298F  D0 06     BNE L_BRS_($2997)_($298F) OK
$2991  20 EE 29  JSR L_JSR_($29EE)_($2991) OK
$2994  4C 79 20  JMP L_JMP_($2079)_($2994) OK
//------------------------------
L_BRS_($2997)_($298F) OK
//------------------------------
$2997  20 12 2A  JSR L_JSR_($2A12)_($2997) OK
$299A  4C 79 20  JMP L_JMP_($2079)_($299A) OK
//------------------------------
L_BRS_($299D)_($2982) OK
//------------------------------
$299D  A9 00     LDA #$00
$299F  8D 0A 90  STA $900A 
$29A2  8D 0B 90  STA $900B 
$29A5  8D 0C 90  STA $900C 
$29A8  20 D4 28  JSR L_JSR_($28D4)_($29A8) OK
$29AB  AD BC 03  LDA $03BC 
$29AE  29 FD     AND #$FD
$29B0  8D BC 03  STA $03BC 
$29B3  AD C4 03  LDA $03C4 
$29B6  29 FD     AND #$FD
$29B8  8D C4 03  STA $03C4 
$29BB  AD D3 1F  LDA $1FD3 
$29BE  2C 14 20  BIT $2014 
$29C1  D0 0D     BNE L_BRS_($29D0)_($29C1) OK
//------------------------------
L_BRS_($29C3)_($29D2) OK
//------------------------------
$29C3  A5 5A     LDA $5A 
$29C5  F0 C0     BEQ L_BRS_($2987)_($29C5) OK
//------------------------------
L_JMP_($29C7)_($29E4) OK
//------------------------------
$29C7  20 D7 22  JSR L_JSR_($22D7)_($29C7) OK
$29CA  20 5B 23  JSR L_JSR_($235B)_($29CA) OK
$29CD  4C 1A 26  JMP L_JMP_($261A)_($29CD) OK
//------------------------------
L_BRS_($29D0)_($29C1) OK
//------------------------------
$29D0  A5 5C     LDA $5C 
$29D2  F0 EF     BEQ L_BRS_($29C3)_($29D2) OK
$29D4  A5 5A     LDA $5A 
$29D6  D0 03     BNE L_BRS_($29DB)_($29D6) OK
$29D8  20 E7 29  JSR L_JSR_($29E7)_($29D8) OK
//------------------------------
L_BRS_($29DB)_($29D6) OK
//------------------------------
$29DB  20 F5 23  JSR L_JSR_($23F5)_($29DB) OK
$29DE  A5 5E     LDA $5E 
$29E0  49 FF     EOR #$FF
$29E2  85 5E     STA $5E 
$29E4  4C C7 29  JMP L_JMP_($29C7)_($29E4) OK
//------------------------------
L_JSR_($29E7)_($29D8) OK
//------------------------------
$29E7  20 16 24  JSR L_JSR_($2416)_($29E7) OK
$29EA  A5 5E     LDA $5E 
$29EC  D0 24     BNE L_BRS_($2A12)_($29EC) OK
//------------------------------
L_JSR_($29EE)_($2991) OK
//------------------------------
$29EE  20 9D 25  JSR L_JSR_($259D)_($29EE) OK
$29F1            .byte $0E,$1F,$2A,$04,$10,$60,$FF
//------------------------------
L_JMP_($29F8)_($2A1C) OK
//------------------------------
$29F8  20 CC 34  JSR L_JSR_($34CC)_($29F8) OK
$29FB  20 9D 25  JSR L_JSR_($259D)_($29FB) OK
$29FE            .byte $02,$00,$00,$0A,$F8,$00,$FF
//------------------------------
L_BRS_($2A05)_($2A07) OK
L_BRS_($2A05)_($2A0B) OK
L_BRS_($2A05)_($2A0F) OK
//------------------------------
$2A05  E6 02     INC $02 
$2A07  D0 FC     BNE L_BRS_($2A05)_($2A07) OK
$2A09  E6 03     INC $03 
$2A0B  D0 F8     BNE L_BRS_($2A05)_($2A0B) OK
$2A0D  E6 0A     INC $0A 
$2A0F  D0 F4     BNE L_BRS_($2A05)_($2A0F) OK
$2A11  60        RTS 
//------------------------------
L_JSR_($2A12)_($2997) OK
L_BRS_($2A12)_($29EC) OK
//------------------------------
$2A12  20 9D 25  JSR L_JSR_($259D)_($2A12) OK
$2A15            .byte $0E,$32,$2A,$04,$10,$60,$FF
$2A1C  4C F8 29  JMP L_JMP_($29F8)_($2A1C) OK
$2A1F            .byte $01,$47,$41,$4D,$45,$60,$4F,$56
$2A27            .byte $45,$52,$60,$50,$4C,$41,$59,$45
$2A2F            .byte $52,$60,$F1,$01,$47,$41,$4D,$45
$2A37            .byte $60,$4F,$56,$45,$52,$60,$50,$4C
$2A3F            .byte $41,$59,$45,$52,$60,$F2
//------------------------------
L_JSR_($2A45)_($2C99) OK
//------------------------------
$2A45  20 E7 28  JSR L_JSR_($28E7)_($2A45) OK
$2A48  20 9D 25  JSR L_JSR_($259D)_($2A48) OK
$2A4B            .byte $00,$80,$03,$FF
$2A4F  A0 02     LDY #$02
$2A51  A9 01     LDA #$01
$2A53  91 00     STA ($00),Y 
$2A55  A0 00     LDY #$00
$2A57  B1 00     LDA ($00),Y 
$2A59  20 0A 29  JSR L_JSR_($290A)_($2A59) OK
$2A5C  4C F0 28  JMP L_JMP_($28F0)_($2A5C) OK
$2A5F  20 5F 2C  JSR L_JSR_($2C5F)_($2A5F) OK
$2A62  10 03     BPL L_BRS_($2A67)_($2A62) OK
$2A64  4C 78 2C  JMP L_JMP_($2C78)_($2A64) OK
//------------------------------
L_BRS_($2A67)_($2A62) OK
//------------------------------
$2A67  20 16 2B  JSR L_JSR_($2B16)_($2A67) OK
$2A6A  4C 83 2A  JMP L_JMP_($2A83)_($2A6A) OK
$2A6D  20 5F 2C  JSR L_JSR_($2C5F)_($2A6D) OK
$2A70  F0 03     BEQ L_BRS_($2A75)_($2A70) OK
$2A72  4C 78 2C  JMP L_JMP_($2C78)_($2A72) OK
//------------------------------
L_BRS_($2A75)_($2A70) OK
//------------------------------
$2A75  20 16 2B  JSR L_JSR_($2B16)_($2A75) OK
$2A78  A0 06     LDY #$06
$2A7A  B1 00     LDA ($00),Y 
$2A7C  F0 24     BEQ L_BRS_($2AA2)_($2A7C) OK
$2A7E  38        SEC 
$2A7F  E9 01     SBC #$01
$2A81  91 00     STA ($00),Y 
//------------------------------
L_JMP_($2A83)_($2A6A) OK
//------------------------------
$2A83  A0 02     LDY #$02
$2A85  B1 00     LDA ($00),Y 
$2A87  30 15     BMI L_BRS_($2A9E)_($2A87) OK
$2A89  A9 08     LDA #$08
//------------------------------
L_BRS_($2A8B)_($2AA0) OK
//------------------------------
$2A8B  91 00     STA ($00),Y 
$2A8D  A0 04     LDY #$04
$2A8F  B1 00     LDA ($00),Y 
$2A91  30 07     BMI L_BRS_($2A9A)_($2A91) OK
$2A93  A9 08     LDA #$08
//------------------------------
L_BRS_($2A95)_($2A9C) OK
//------------------------------
$2A95  91 00     STA ($00),Y 
$2A97  4C 92 2C  JMP L_JMP_($2C92)_($2A97) OK
//------------------------------
L_BRS_($2A9A)_($2A91) OK
//------------------------------
$2A9A  A9 F8     LDA #$F8
$2A9C  30 F7     BMI L_BRS_($2A95)_($2A9C) OK
//------------------------------
L_BRS_($2A9E)_($2A87) OK
//------------------------------
$2A9E  A9 F8     LDA #$F8
$2AA0  30 E9     BMI L_BRS_($2A8B)_($2AA0) OK
//------------------------------
L_BRS_($2AA2)_($2A7C) OK
//------------------------------
$2AA2  A5 4C     LDA $4C 
$2AA4  29 0F     AND #$0F
$2AA6  69 10     ADC #$10
$2AA8  91 00     STA ($00),Y 
$2AAA  A0 04     LDY #$04
$2AAC  29 04     AND #$04
$2AAE  24 4C     BIT $4C 
$2AB0  30 05     BMI L_BRS_($2AB7)_($2AB0) OK
$2AB2  49 FF     EOR #$FF
$2AB4  18        CLC 
$2AB5  69 01     ADC #$01
//------------------------------
L_BRS_($2AB7)_($2AB0) OK
//------------------------------
$2AB7  91 00     STA ($00),Y 
$2AB9  4C 92 2C  JMP L_JMP_($2C92)_($2AB9) OK
$2ABC  20 5F 2C  JSR L_JSR_($2C5F)_($2ABC) OK
$2ABF  10 03     BPL L_BRS_($2AC4)_($2ABF) OK
$2AC1  4C 78 2C  JMP L_JMP_($2C78)_($2AC1) OK
//------------------------------
L_BRS_($2AC4)_($2ABF) OK
//------------------------------
$2AC4  20 16 2B  JSR L_JSR_($2B16)_($2AC4) OK
$2AC7  A0 01     LDY #$01
$2AC9  B1 00     LDA ($00),Y 
$2ACB  C8        INY 
$2ACC  38        SEC 
$2ACD  ED 81 03  SBC $0381 
$2AD0  30 28     BMI L_BRS_($2AFA)_($2AD0) OK
$2AD2  B1 00     LDA ($00),Y 
$2AD4  38        SEC 
$2AD5  10 04     BPL L_BRS_($2ADB)_($2AD5) OK
$2AD7  C9 FC     CMP #$FC
$2AD9  90 04     BCC L_BRS_($2ADF)_($2AD9) OK
//------------------------------
L_BRS_($2ADB)_($2AD5) OK
//------------------------------
$2ADB  E9 01     SBC #$01
//------------------------------
L_JMP_($2ADD)_($2B05) OK
//------------------------------
$2ADD  91 00     STA ($00),Y 
//------------------------------
L_BRS_($2ADF)_($2AD9) OK
L_BRS_($2ADF)_($2B01) OK
//------------------------------
$2ADF  A0 03     LDY #$03
$2AE1  B1 00     LDA ($00),Y 
$2AE3  C8        INY 
$2AE4  38        SEC 
$2AE5  ED 83 03  SBC $0383 
$2AE8  30 1E     BMI L_BRS_($2B08)_($2AE8) OK
$2AEA  B1 00     LDA ($00),Y 
$2AEC  38        SEC 
$2AED  10 04     BPL L_BRS_($2AF3)_($2AED) OK
$2AEF  C9 FC     CMP #$FC
$2AF1  90 04     BCC L_BRS_($2AF7)_($2AF1) OK
//------------------------------
L_BRS_($2AF3)_($2AED) OK
//------------------------------
$2AF3  E9 01     SBC #$01
//------------------------------
L_JMP_($2AF5)_($2B13) OK
//------------------------------
$2AF5  91 00     STA ($00),Y 
//------------------------------
L_BRS_($2AF7)_($2AF1) OK
L_BRS_($2AF7)_($2B0F) OK
//------------------------------
$2AF7  4C 92 2C  JMP L_JMP_($2C92)_($2AF7) OK
//------------------------------
L_BRS_($2AFA)_($2AD0) OK
//------------------------------
$2AFA  B1 00     LDA ($00),Y 
$2AFC  18        CLC 
$2AFD  30 04     BMI L_BRS_($2B03)_($2AFD) OK
$2AFF  C9 04     CMP #$04
$2B01  B0 DC     BCS L_BRS_($2ADF)_($2B01) OK
//------------------------------
L_BRS_($2B03)_($2AFD) OK
//------------------------------
$2B03  69 01     ADC #$01
$2B05  4C DD 2A  JMP L_JMP_($2ADD)_($2B05) OK
//------------------------------
L_BRS_($2B08)_($2AE8) OK
//------------------------------
$2B08  B1 00     LDA ($00),Y 
$2B0A  18        CLC 
$2B0B  30 04     BMI L_BRS_($2B11)_($2B0B) OK
$2B0D  C9 04     CMP #$04
$2B0F  B0 E6     BCS L_BRS_($2AF7)_($2B0F) OK
//------------------------------
L_BRS_($2B11)_($2B0B) OK
//------------------------------
$2B11  69 01     ADC #$01
$2B13  4C F5 2A  JMP L_JMP_($2AF5)_($2B13) OK
//------------------------------
L_JSR_($2B16)_($2A67) OK
L_JSR_($2B16)_($2A75) OK
L_JSR_($2B16)_($2AC4) OK
//------------------------------
$2B16  20 B3 30  JSR L_JSR_($30B3)_($2B16) OK
$2B19  A5 02     LDA $02 
$2B1B  10 19     BPL L_BRS_($2B36)_($2B1B) OK
$2B1D  A0 02     LDY #$02
$2B1F  2C 16 20  BIT $2016 
$2B22  D0 13     BNE L_BRS_($2B37)_($2B22) OK
$2B24  A0 04     LDY #$04
$2B26  2C 17 20  BIT $2017 
$2B29  D0 17     BNE L_BRS_($2B42)_($2B29) OK
$2B2B  B1 00     LDA ($00),Y 
$2B2D  10 07     BPL L_BRS_($2B36)_($2B2D) OK
//------------------------------
L_BRS_($2B2F)_($2B40) OK
//------------------------------
$2B2F  49 FF     EOR #$FF
$2B31  18        CLC 
$2B32  69 03     ADC #$03
$2B34  91 00     STA ($00),Y 
//------------------------------
L_BRS_($2B36)_($2B1B) OK
L_BRS_($2B36)_($2B2D) OK
L_BRS_($2B36)_($2B3E) OK
L_BRS_($2B36)_($2B44) OK
//------------------------------
$2B36  60        RTS 
//------------------------------
L_BRS_($2B37)_($2B22) OK
//------------------------------
$2B37  2C 14 20  BIT $2014 
$2B3A  D0 06     BNE L_BRS_($2B42)_($2B3A) OK
$2B3C  B1 00     LDA ($00),Y 
$2B3E  10 F6     BPL L_BRS_($2B36)_($2B3E) OK
$2B40  30 ED     BMI L_BRS_($2B2F)_($2B40) OK
//------------------------------
L_BRS_($2B42)_($2B29) OK
L_BRS_($2B42)_($2B3A) OK
//------------------------------
$2B42  B1 00     LDA ($00),Y 
$2B44  30 F0     BMI L_BRS_($2B36)_($2B44) OK
$2B46  49 FF     EOR #$FF
$2B48  91 00     STA ($00),Y 
$2B4A  60        RTS 
//------------------------------
L_JSR_($2B4B)_($2655) OK
//------------------------------
$2B4B  AD 80 03  LDA $0380 
$2B4E  29 3F     AND #$3F
$2B50  D0 01     BNE L_BRS_($2B53)_($2B50) OK
//------------------------------
L_BRS_($2B52)_($2B55) OK
L_BRS_($2B52)_($2B5A) OK
L_BRS_($2B52)_($2B61) OK
L_BRS_($2B52)_($2B69) OK
//------------------------------
$2B52  60        RTS 
//------------------------------
L_BRS_($2B53)_($2B50) OK
//------------------------------
$2B53  C9 03     CMP #$03
$2B55  B0 FB     BCS L_BRS_($2B52)_($2B55) OK
$2B57  AD B8 03  LDA $03B8 
$2B5A  D0 F6     BNE L_BRS_($2B52)_($2B5A) OK
$2B5C  AD B2 03  LDA $03B2 
$2B5F  C9 06     CMP #$06
$2B61  B0 EF     BCS L_BRS_($2B52)_($2B61) OK
$2B63  A5 4A     LDA $4A 
$2B65  49 FF     EOR #$FF
$2B67  29 0F     AND #$0F
$2B69  D0 E7     BNE L_BRS_($2B52)_($2B69) OK
$2B6B  A2 07     LDX #$07
//------------------------------
L_BRS_($2B6D)_($2B74) OK
//------------------------------
$2B6D  BD 7F 2B  LDA $2B7F,X 
$2B70  9D B8 03  STA $03B8,X 
$2B73  CA        DEX 
$2B74  10 F7     BPL L_BRS_($2B6D)_($2B74) OK
$2B76  20 DE 2B  JSR L_JSR_($2BDE)_($2B76) OK
$2B79  8D B9 03  STA $03B9 
$2B7C  4C E3 22  JMP L_JMP_($22E3)_($2B7C) OK
$2B7F            .byte $04,$00,$00,$20,$01,$04,$18,$18
$2B87            .byte $0E,$00,$00,$20,$00,$00,$00,$18
//------------------------------
L_JSR_($2B8F)_($2658) OK
//------------------------------
$2B8F  AD 80 03  LDA $0380 
$2B92  29 3F     AND #$3F
$2B94  D0 01     BNE L_BRS_($2B97)_($2B94) OK
//------------------------------
L_BRS_($2B96)_($2B99) OK
L_BRS_($2B96)_($2B9E) OK
L_BRS_($2B96)_($2BA4) OK
//------------------------------
$2B96  60        RTS 
//------------------------------
L_BRS_($2B97)_($2B94) OK
//------------------------------
$2B97  C9 03     CMP #$03
$2B99  B0 FB     BCS L_BRS_($2B96)_($2B99) OK
$2B9B  AD C0 03  LDA $03C0 
$2B9E  D0 F6     BNE L_BRS_($2B96)_($2B9E) OK
$2BA0  A5 4A     LDA $4A 
$2BA2  29 7F     AND #$7F
$2BA4  D0 F0     BNE L_BRS_($2B96)_($2BA4) OK
$2BA6  A2 07     LDX #$07
//------------------------------
L_BRS_($2BA8)_($2BAF) OK
//------------------------------
$2BA8  BD 87 2B  LDA $2B87,X 
$2BAB  9D C0 03  STA $03C0,X 
$2BAE  CA        DEX 
$2BAF  10 F7     BPL L_BRS_($2BA8)_($2BAF) OK
$2BB1  20 DE 2B  JSR L_JSR_($2BDE)_($2BB1) OK
$2BB4  8D C1 03  STA $03C1 
$2BB7  A5 4C     LDA $4C 
$2BB9  29 0E     AND #$0E
$2BBB  2C 17 20  BIT $2017 
$2BBE  F0 02     BEQ L_BRS_($2BC2)_($2BBE) OK
$2BC0  29 08     AND #$08
//------------------------------
L_BRS_($2BC2)_($2BBE) OK
//------------------------------
$2BC2  09 20     ORA #$20
$2BC4  8D C6 03  STA $03C6 
//------------------------------
L_JSR_($2BC7)_($2DC5) OK
//------------------------------
$2BC7  20 E7 28  JSR L_JSR_($28E7)_($2BC7) OK
$2BCA  20 9D 25  JSR L_JSR_($259D)_($2BCA) OK
$2BCD            .byte $00,$C0,$03,$FF
$2BD1  20 E9 35  JSR L_JSR_($35E9)_($2BD1) OK
$2BD4  A0 06     LDY #$06
$2BD6  B1 00     LDA ($00),Y 
$2BD8  20 5A 30  JSR L_JSR_($305A)_($2BD8) OK
$2BDB  4C F0 28  JMP L_JMP_($28F0)_($2BDB) OK
//------------------------------
L_JSR_($2BDE)_($2B76) OK
L_JSR_($2BDE)_($2BB1) OK
//------------------------------
$2BDE  AD 04 90  LDA $9004 
$2BE1  29 0F     AND #$0F
$2BE3  AA        TAX 
$2BE4  BD E8 2B  LDA $2BE8,X 
$2BE7  60        RTS 
//------------------------------
$2BE8            .byte $00,$10,$18,$20,$28,$38,$40,$50
$2BF0            .byte $58,$88,$90,$98,$00,$10,$18,$20
//------------------------------
L_JSR_($2BF8)_($2C64) OK
//------------------------------
$2BF8  A9 88     LDA #$88
$2BFA  85 08     STA $08 
$2BFC  A9 03     LDA #$03
$2BFE  85 09     STA $09 
$2C00  A9 04     LDA #$04
$2C02  85 02     STA $02 
$2C04  A0 03     LDY #$03
$2C06  B1 00     LDA ($00),Y 
$2C08  85 06     STA $06 
$2C0A  88        DEY 
$2C0B  88        DEY 
$2C0C  B1 00     LDA ($00),Y 
$2C0E  85 07     STA $07 
//------------------------------
L_BRS_($2C10)_($2C5C) OK
//------------------------------
$2C10  A0 02     LDY #$02
$2C12  B1 08     LDA ($08),Y 
$2C14  2C 16 20  BIT $2016 
$2C17  D0 08     BNE L_BRS_($2C21)_($2C17) OK
$2C19  C8        INY 
$2C1A  B1 08     LDA ($08),Y 
$2C1C  2C 16 20  BIT $2016 
$2C1F  F0 32     BEQ L_BRS_($2C53)_($2C1F) OK
//------------------------------
L_BRS_($2C21)_($2C17) OK
//------------------------------
$2C21  A0 00     LDY #$00
$2C23  B1 08     LDA ($08),Y 
$2C25  F0 2C     BEQ L_BRS_($2C53)_($2C25) OK
$2C27  C8        INY 
$2C28  A5 06     LDA $06 
$2C2A  38        SEC 
$2C2B  F1 08     SBC ($08),Y 
$2C2D  C9 10     CMP #$10
$2C2F  B0 22     BCS L_BRS_($2C53)_($2C2F) OK
$2C31  C8        INY 
$2C32  B1 08     LDA ($08),Y 
$2C34  29 F8     AND #$F8
$2C36  E9 03     SBC #$03
$2C38  38        SEC 
$2C39  E5 07     SBC $07 
$2C3B  10 05     BPL L_BRS_($2C42)_($2C3B) OK
$2C3D  49 FF     EOR #$FF
$2C3F  18        CLC 
$2C40  69 01     ADC #$01
//------------------------------
L_BRS_($2C42)_($2C3B) OK
//------------------------------
$2C42  C9 20     CMP #$20
$2C44  B0 0D     BCS L_BRS_($2C53)_($2C44) OK
$2C46  A9 80     LDA #$80
$2C48  85 02     STA $02 
$2C4A  A0 02     LDY #$02
$2C4C  B1 08     LDA ($08),Y 
$2C4E  29 FB     AND #$FB
$2C50  91 08     STA ($08),Y 
$2C52  60        RTS 
//------------------------------
L_BRS_($2C53)_($2C1F) OK
L_BRS_($2C53)_($2C25) OK
L_BRS_($2C53)_($2C2F) OK
L_BRS_($2C53)_($2C44) OK
//------------------------------
$2C53  A5 08     LDA $08 
$2C55  18        CLC 
$2C56  69 08     ADC #$08
$2C58  85 08     STA $08 
$2C5A  C6 02     DEC $02 
$2C5C  D0 B2     BNE L_BRS_($2C10)_($2C5C) OK
$2C5E  60        RTS 
//------------------------------
L_JSR_($2C5F)_($2A5F) OK
L_JSR_($2C5F)_($2A6D) OK
L_JSR_($2C5F)_($2ABC) OK
L_JSR_($2C5F)_($2C6A) OK
//------------------------------
$2C5F  E6 21     INC $21 
$2C61  20 D7 35  JSR L_JSR_($35D7)_($2C61) OK
$2C64  20 F8 2B  JSR L_JSR_($2BF8)_($2C64) OK
$2C67  A5 02     LDA $02 
$2C69  60        RTS 
//------------------------------
$2C6A  20 5F 2C  JSR L_JSR_($2C5F)_($2C6A) OK
$2C6D  30 09     BMI L_BRS_($2C78)_($2C6D) OK
$2C6F  20 B3 30  JSR L_JSR_($30B3)_($2C6F) OK
$2C72  A5 02     LDA $02 
$2C74  10 1C     BPL L_BRS_($2C92)_($2C74) OK
$2C76  30 14     BMI L_BRS_($2C8C)_($2C76) OK
//------------------------------
L_JMP_($2C78)_($2A64) OK
L_JMP_($2C78)_($2A72) OK
L_JMP_($2C78)_($2AC1) OK
L_BRS_($2C78)_($2C6D) OK
L_JMP_($2C78)_($2C9C) OK
//------------------------------
$2C78  A5 59     LDA $59 
$2C7A  29 03     AND #$03
$2C7C  0A        ASL A 
$2C7D  AA        TAX 
$2C7E  BD DB 2C  LDA $2CDB,X 
$2C81  85 02     STA $02 
$2C83  E8        INX 
$2C84  BD DB 2C  LDA $2CDB,X 
$2C87  85 03     STA $03 
$2C89  20 63 30  JSR L_JSR_($3063)_($2C89) OK
//------------------------------
L_BRS_($2C8C)_($2C76) OK
//------------------------------
$2C8C  20 F9 28  JSR L_JSR_($28F9)_($2C8C) OK
$2C8F  4C 1A 26  JMP L_JMP_($261A)_($2C8F) OK
//------------------------------
L_JMP_($2C92)_($2A97) OK
L_JMP_($2C92)_($2AB9) OK
L_JMP_($2C92)_($2AF7) OK
L_BRS_($2C92)_($2C74) OK
//------------------------------
$2C92  20 58 2D  JSR L_JSR_($2D58)_($2C92) OK
$2C95  A5 02     LDA $02 
$2C97  10 06     BPL L_BRS_($2C9F)_($2C97) OK
$2C99  20 45 2A  JSR L_JSR_($2A45)_($2C99) OK
$2C9C  4C 78 2C  JMP L_JMP_($2C78)_($2C9C) OK
//------------------------------
L_BRS_($2C9F)_($2C97) OK
//------------------------------
$2C9F  A0 02     LDY #$02
$2CA1  B1 00     LDA ($00),Y 
$2CA3  88        DEY 
$2CA4  48        PHA 
$2CA5  2A        ROL A 
$2CA6  68        PLA 
$2CA7  6A        ROR A 
$2CA8  18        CLC 
$2CA9  71 00     ADC ($00),Y 
$2CAB  C9 F0     CMP #$F0
$2CAD  B0 1D     BCS L_BRS_($2CCC)_($2CAD) OK
$2CAF  C9 B8     CMP #$B8
$2CB1  B0 1E     BCS L_BRS_($2CD1)_($2CB1) OK
//------------------------------
L_JMP_($2CB3)_($2CCE) OK
L_JMP_($2CB3)_($2CD3) OK
//------------------------------
$2CB3  91 00     STA ($00),Y 
$2CB5  A0 04     LDY #$04
$2CB7  B1 00     LDA ($00),Y 
$2CB9  88        DEY 
$2CBA  48        PHA 
$2CBB  2A        ROL A 
$2CBC  68        PLA 
$2CBD  6A        ROR A 
$2CBE  18        CLC 
$2CBF  71 00     ADC ($00),Y 
$2CC1  91 00     STA ($00),Y 
$2CC3  20 46 36  JSR L_JSR_($3646)_($2CC3) OK
$2CC6  20 1F 38  JSR L_JSR_($381F)_($2CC6) OK
$2CC9  4C 1A 26  JMP L_JMP_($261A)_($2CC9) OK
//------------------------------
L_BRS_($2CCC)_($2CAD) OK
//------------------------------
$2CCC  69 B8     ADC #$B8
$2CCE  4C B3 2C  JMP L_JMP_($2CB3)_($2CCE) OK
//------------------------------
L_BRS_($2CD1)_($2CB1) OK
//------------------------------
$2CD1  69 48     ADC #$48
$2CD3  4C B3 2C  JMP L_JMP_($2CB3)_($2CD3) OK
//------------------------------
L_JSR_($2CD6)_($2652) OK
//------------------------------
$2CD6  A5 5D     LDA $5D 
$2CD8  F0 09     BEQ L_BRS_($2CE3)_($2CD8) OK
$2CDA  60        RTS 
//------------------------------
$2CDB            .byte $25,$00,$35,$00,$45,$00,$55,$00
//------------------------------
L_BRS_($2CE3)_($2CD8) OK
//------------------------------
$2CE3  AD 80 03  LDA $0380 
$2CE6  29 3F     AND #$3F
$2CE8  C9 01     CMP #$01
$2CEA  F0 05     BEQ L_BRS_($2CF1)_($2CEA) OK
$2CEC  C9 02     CMP #$02
$2CEE  F0 01     BEQ L_BRS_($2CF1)_($2CEE) OK
$2CF0  60        RTS 
//------------------------------
L_BRS_($2CF1)_($2CEA) OK
L_BRS_($2CF1)_($2CEE) OK
//------------------------------
$2CF1  A9 C8     LDA #$C8
$2CF3  85 00     STA $00 
$2CF5  A9 03     LDA #$03
$2CF7  85 01     STA $01 
$2CF9  A9 06     LDA #$06
$2CFB  85 02     STA $02 
$2CFD  A0 00     LDY #$00
//------------------------------
L_BRS_($2CFF)_($2D0C) OK
//------------------------------
$2CFF  B1 00     LDA ($00),Y 
$2D01  F0 0C     BEQ L_BRS_($2D0F)_($2D01) OK
$2D03  A5 00     LDA $00 
$2D05  18        CLC 
$2D06  69 08     ADC #$08
$2D08  85 00     STA $00 
$2D0A  C6 02     DEC $02 
$2D0C  D0 F1     BNE L_BRS_($2CFF)_($2D0C) OK
$2D0E  60        RTS 
//------------------------------
L_BRS_($2D0F)_($2D01) OK
//------------------------------
$2D0F  A5 59     LDA $59 
$2D11  29 03     AND #$03
$2D13  AA        TAX 
$2D14  BD 4C 2D  LDA $2D4C,X 
$2D17  91 00     STA ($00),Y 
$2D19  98        TYA 
$2D1A  C8        INY 
$2D1B  91 00     STA ($00),Y 
$2D1D  C8        INY 
$2D1E  A5 4C     LDA $4C 
$2D20  AA        TAX 
$2D21  29 10     AND #$10
$2D23  38        SEC 
$2D24  E9 08     SBC #$08
$2D26  91 00     STA ($00),Y 
$2D28  C8        INY 
$2D29  8A        TXA 
$2D2A  29 7F     AND #$7F
$2D2C  69 28     ADC #$28
$2D2E  91 00     STA ($00),Y 
$2D30  C8        INY 
$2D31  29 02     AND #$02
$2D33  91 00     STA ($00),Y 
$2D35  C8        INY 
$2D36  8A        TXA 
$2D37  29 01     AND #$01
$2D39  85 02     STA $02 
$2D3B  A5 59     LDA $59 
$2D3D  0A        ASL A 
$2D3E  29 06     AND #$06
$2D40  18        CLC 
$2D41  65 02     ADC $02 
$2D43  AA        TAX 
$2D44  BD 50 2D  LDA $2D50,X 
$2D47  91 00     STA ($00),Y 
$2D49  4C 01 36  JMP L_JMP_($3601)_($2D49) OK
$2D4C            .byte $05,$08,$07,$06,$02,$06,$03,$07
$2D54            .byte $06,$07,$02,$04
//------------------------------
L_JSR_($2D58)_($2854) OK
L_JSR_($2D58)_($2C92) OK
L_JSR_($2D58)_($2E77) OK
L_JSR_($2D58)_($2FA4) OK
//------------------------------
$2D58  A5 5D     LDA $5D 
$2D5A  D0 0D     BNE L_BRS_($2D69)_($2D5A) OK
$2D5C  AD 80 03  LDA $0380 
$2D5F  29 3F     AND #$3F
$2D61  C9 01     CMP #$01
$2D63  F0 09     BEQ L_BRS_($2D6E)_($2D63) OK
$2D65  C9 02     CMP #$02
$2D67  F0 05     BEQ L_BRS_($2D6E)_($2D67) OK
//------------------------------
L_BRS_($2D69)_($2D5A) OK
//------------------------------
$2D69  A9 00     LDA #$00
$2D6B  85 02     STA $02 
$2D6D  60        RTS 
//------------------------------
L_BRS_($2D6E)_($2D63) OK
L_BRS_($2D6E)_($2D67) OK
//------------------------------
$2D6E  A0 00     LDY #$00
$2D70  84 02     STY $02 
$2D72  C8        INY 
$2D73  AD 81 03  LDA $0381 
$2D76  38        SEC 
$2D77  F1 00     SBC ($00),Y 
$2D79  10 05     BPL L_BRS_($2D80)_($2D79) OK
$2D7B  18        CLC 
$2D7C  49 FF     EOR #$FF
$2D7E  69 01     ADC #$01
//------------------------------
L_BRS_($2D80)_($2D79) OK
//------------------------------
$2D80  C9 0C     CMP #$0C
$2D82  B0 17     BCS L_BRS_($2D9B)_($2D82) OK
$2D84  C8        INY 
$2D85  C8        INY 
$2D86  AD 83 03  LDA $0383 
$2D89  38        SEC 
$2D8A  F1 00     SBC ($00),Y 
$2D8C  10 0E     BPL L_BRS_($2D9C)_($2D8C) OK
$2D8E  18        CLC 
$2D8F  49 FF     EOR #$FF
$2D91  69 01     ADC #$01
$2D93  C9 0C     CMP #$0C
//------------------------------
L_JMP_($2D95)_($2D9E) OK
//------------------------------
$2D95  B0 04     BCS L_BRS_($2D9B)_($2D95) OK
$2D97  A9 80     LDA #$80
$2D99  85 02     STA $02 
//------------------------------
L_BRS_($2D9B)_($2D82) OK
L_BRS_($2D9B)_($2D95) OK
//------------------------------
$2D9B  60        RTS 
//------------------------------
L_BRS_($2D9C)_($2D8C) OK
//------------------------------
$2D9C  C9 12     CMP #$12
$2D9E  4C 95 2D  JMP L_JMP_($2D95)_($2D9E) OK
//------------------------------
L_JSR_($2DA1)_($22DD) OK
//------------------------------
$2DA1  AD B8 03  LDA $03B8 
$2DA4  F0 03     BEQ L_BRS_($2DA9)_($2DA4) OK
$2DA6  20 E3 22  JSR L_JSR_($22E3)_($2DA6) OK
//------------------------------
L_BRS_($2DA9)_($2DA4) OK
//------------------------------
$2DA9  AD C0 03  LDA $03C0 
$2DAC  F0 07     BEQ L_BRS_($2DB5)_($2DAC) OK
$2DAE  C9 0E     CMP #$0E
$2DB0  F0 13     BEQ L_BRS_($2DC5)_($2DB0) OK
$2DB2  20 F2 22  JSR L_JSR_($22F2)_($2DB2) OK
//------------------------------
L_BRS_($2DB5)_($2DAC) OK
L_JMP_($2DB5)_($2DC8) OK
//------------------------------
$2DB5  20 E7 28  JSR L_JSR_($28E7)_($2DB5) OK
$2DB8  20 9D 25  JSR L_JSR_($259D)_($2DB8) OK
$2DBB            .byte $00,$B0,$03,$FF
$2DBF  20 CB 2D  JSR L_JSR_($2DCB)_($2DBF) OK
$2DC2  4C F0 28  JMP L_JMP_($28F0)_($2DC2) OK
//------------------------------
L_BRS_($2DC5)_($2DB0) OK
//------------------------------
$2DC5  20 C7 2B  JSR L_JSR_($2BC7)_($2DC5) OK
$2DC8  4C B5 2D  JMP L_JMP_($2DB5)_($2DC8) OK
//------------------------------
L_JSR_($2DCB)_($22D1) OK
L_JSR_($2DCB)_($2DBF) OK
//------------------------------
$2DCB  20 DD 2D  JSR L_JSR_($2DDD)_($2DCB) OK
$2DCE  20 E9 35  JSR L_JSR_($35E9)_($2DCE) OK
//------------------------------
L_BRS_($2DD1)_($2DDA) OK
//------------------------------
$2DD1  20 E8 2D  JSR L_JSR_($2DE8)_($2DD1) OK
$2DD4  20 04 36  JSR L_JSR_($3604)_($2DD4) OK
$2DD7  20 FF 2D  JSR L_JSR_($2DFF)_($2DD7) OK
$2DDA  D0 F5     BNE L_BRS_($2DD1)_($2DDA) OK
$2DDC  60        RTS 
//------------------------------
L_JSR_($2DDD)_($2DCB) OK
L_JSR_($2DDD)_($2EB2) OK
//------------------------------
$2DDD  A0 04     LDY #$04
$2DDF  B1 00     LDA ($00),Y 
$2DE1  85 1F     STA $1F 
$2DE3  A9 00     LDA #$00
$2DE5  85 1E     STA $1E 
$2DE7  60        RTS 
//------------------------------
L_JSR_($2DE8)_($2DD1) OK
L_JSR_($2DE8)_($2EB5) OK
//------------------------------
$2DE8  A5 59     LDA $59 
$2DEA  4A        LSR A 
$2DEB  4A        LSR A 
$2DEC  29 03     AND #$03
$2DEE  05 1E     ORA $1E
$2DF0  0A        ASL A 
$2DF1  48        PHA 
$2DF2  20 E5 2F  JSR L_JSR_($2FE5)_($2DF2) OK
$2DF5  20 3D 37  JSR L_JSR_($373D)_($2DF5) OK
$2DF8  68        PLA 
$2DF9  20 E5 2F  JSR L_JSR_($2FE5)_($2DF9) OK
$2DFC  4C 8D 37  JMP L_JMP_($378D)_($2DFC) OK
//------------------------------
L_JSR_($2DFF)_($2DD7) OK
L_JSR_($2DFF)_($2EBB) OK
//------------------------------
$2DFF  A5 19     LDA $19 
$2E01  38        SEC 
$2E02  E9 10     SBC #$10
$2E04  85 19     STA $19 
$2E06  A5 11     LDA $11 
$2E08  38        SEC 
$2E09  E9 10     SBC #$10
$2E0B  85 11     STA $11 
$2E0D  A5 1E     LDA $1E 
$2E0F  18        CLC 
$2E10  69 04     ADC #$04
$2E12  85 1E     STA $1E 
$2E14  C6 1F     DEC $1F 
$2E16  60        RTS 
//------------------------------
$2E17  20 D7 35  JSR L_JSR_($35D7)_($2E17) OK
$2E1A  A0 03     LDY #$03
$2E1C  B1 00     LDA ($00),Y 
$2E1E  C9 30     CMP #$30
$2E20  90 12     BCC L_BRS_($2E34)_($2E20) OK
$2E22  38        SEC 
$2E23  E9 01     SBC #$01
$2E25  91 00     STA ($00),Y 
$2E27  A9 04     LDA #$04
$2E29  8D AB 03  STA $03AB 
$2E2C  A9 02     LDA #$02
$2E2E  8D AC 03  STA $03AC 
$2E31  4C AC 2E  JMP L_JMP_($2EAC)_($2E31) OK
//------------------------------
L_BRS_($2E34)_($2E20) OK
//------------------------------
$2E34  E6 59     INC $59 
$2E36  20 C9 28  JSR L_JSR_($28C9)_($2E36) OK
$2E39  A0 00     LDY #$00
$2E3B  A9 0B     LDA #$0B
$2E3D  91 00     STA ($00),Y 
$2E3F  98        TYA 
$2E40  A0 02     LDY #$02
$2E42  91 00     STA ($00),Y 
$2E44  20 BA 22  JSR L_JSR_($22BA)_($2E44) OK
$2E47  A9 00     LDA #$00
$2E49  85 26     STA $26 
$2E4B  4C 1A 26  JMP L_JMP_($261A)_($2E4B) OK
$2E4E  20 D7 35  JSR L_JSR_($35D7)_($2E4E) OK
$2E51  A9 04     LDA #$04
$2E53  8D AB 03  STA $03AB 
$2E56  A9 02     LDA #$02
$2E58  8D AC 03  STA $03AC 
$2E5B  A0 03     LDY #$03
$2E5D  B1 00     LDA ($00),Y 
$2E5F  18        CLC 
$2E60  69 01     ADC #$01
$2E62  91 00     STA ($00),Y 
$2E64  C9 AF     CMP #$AF
$2E66  90 44     BCC L_BRS_($2EAC)_($2E66) OK
$2E68  A0 00     LDY #$00
$2E6A  A9 09     LDA #$09
$2E6C  91 00     STA ($00),Y 
$2E6E  20 5B 23  JSR L_JSR_($235B)_($2E6E) OK
$2E71  4C AC 2E  JMP L_JMP_($2EAC)_($2E71) OK
$2E74  20 D7 35  JSR L_JSR_($35D7)_($2E74) OK
$2E77  20 58 2D  JSR L_JSR_($2D58)_($2E77) OK
$2E7A  A5 02     LDA $02 
$2E7C  10 2E     BPL L_BRS_($2EAC)_($2E7C) OK
$2E7E  A0 02     LDY #$02
$2E80  B1 00     LDA ($00),Y 
$2E82  C9 06     CMP #$06
$2E84  90 26     BCC L_BRS_($2EAC)_($2E84) OK
$2E86  A9 0A     LDA #$0A
$2E88  A0 00     LDY #$00
$2E8A  91 00     STA ($00),Y 
$2E8C  20 E7 28  JSR L_JSR_($28E7)_($2E8C) OK
$2E8F  20 9D 25  JSR L_JSR_($259D)_($2E8F) OK
$2E92            .byte $00,$80,$03,$FF
$2E96  20 E9 35  JSR L_JSR_($35E9)_($2E96) OK
$2E99  20 01 36  JSR L_JSR_($3601)_($2E99) OK
$2E9C  A9 00     LDA #$00
$2E9E  8D 80 03  STA $0380 
$2EA1  20 F0 28  JSR L_JSR_($28F0)_($2EA1) OK
$2EA4  E6 5A     INC $5A 
$2EA6  20 73 23  JSR L_JSR_($2373)_($2EA6) OK
$2EA9  4C 1A 26  JMP L_JMP_($261A)_($2EA9) OK
//------------------------------
L_JMP_($2EAC)_($2E31) OK
L_BRS_($2EAC)_($2E66) OK
L_JMP_($2EAC)_($2E71) OK
L_BRS_($2EAC)_($2E7C) OK
L_BRS_($2EAC)_($2E84) OK
//------------------------------
$2EAC  20 E9 35  JSR L_JSR_($35E9)_($2EAC) OK
$2EAF  20 AA 27  JSR L_JSR_($27AA)_($2EAF) OK
$2EB2  20 DD 2D  JSR L_JSR_($2DDD)_($2EB2) OK
//------------------------------
L_BRS_($2EB5)_($2EBE) OK
//------------------------------
$2EB5  20 E8 2D  JSR L_JSR_($2DE8)_($2EB5) OK
$2EB8  20 4C 36  JSR L_JSR_($364C)_($2EB8) OK
$2EBB  20 FF 2D  JSR L_JSR_($2DFF)_($2EBB) OK
$2EBE  D0 F5     BNE L_BRS_($2EB5)_($2EBE) OK
$2EC0  A5 4A     LDA $4A 
$2EC2  4A        LSR A 
$2EC3  4A        LSR A 
$2EC4  29 04     AND #$04
$2EC6  D0 02     BNE L_BRS_($2ECA)_($2EC6) OK
$2EC8  A9 01     LDA #$01
//------------------------------
L_BRS_($2ECA)_($2EC6) OK
//------------------------------
$2ECA  85 1B     STA $1B 
$2ECC  A0 04     LDY #$04
$2ECE  B1 00     LDA ($00),Y 
$2ED0  85 02     STA $02 
$2ED2  C9 03     CMP #$03
$2ED4  90 27     BCC L_BRS_($2EFD)_($2ED4) OK
$2ED6  A0 02     LDY #$02
$2ED8  B1 00     LDA ($00),Y 
$2EDA  4A        LSR A 
$2EDB  85 13     STA $13 
$2EDD  F0 1E     BEQ L_BRS_($2EFD)_($2EDD) OK
$2EDF  C9 03     CMP #$03
$2EE1  B0 1E     BCS L_BRS_($2F01)_($2EE1) OK
$2EE3  85 02     STA $02 
$2EE5  A9 04     LDA #$04
$2EE7  85 1B     STA $1B 
$2EE9  20 07 2F  JSR L_JSR_($2F07)_($2EE9) OK
$2EEC  A9 03     LDA #$03
$2EEE  38        SEC 
$2EEF  E5 13     SBC $13 
$2EF1  85 02     STA $02 
$2EF3  A9 01     LDA #$01
$2EF5  85 1B     STA $1B 
$2EF7  20 16 2F  JSR L_JSR_($2F16)_($2EF7) OK
$2EFA  4C 1A 26  JMP L_JMP_($261A)_($2EFA) OK
//------------------------------
L_BRS_($2EFD)_($2ED4) OK
L_BRS_($2EFD)_($2EDD) OK
//------------------------------
$2EFD  A9 01     LDA #$01
$2EFF  85 1B     STA $1B 
//------------------------------
L_BRS_($2F01)_($2EE1) OK
//------------------------------
$2F01  20 07 2F  JSR L_JSR_($2F07)_($2F01) OK
$2F04  4C 1A 26  JMP L_JMP_($261A)_($2F04) OK
//------------------------------
L_JSR_($2F07)_($2EE9) OK
L_JSR_($2F07)_($2F01) OK
//------------------------------
$2F07  A0 01     LDY #$01
$2F09  B1 00     LDA ($00),Y 
$2F0B  85 04     STA $04 
$2F0D  A0 03     LDY #$03
$2F0F  B1 00     LDA ($00),Y 
$2F11  85 05     STA $05 
$2F13  20 F7 34  JSR L_JSR_($34F7)_($2F13) OK
//------------------------------
L_JSR_($2F16)_($2EF7) OK
L_BRS_($2F16)_($2F2E) OK
//------------------------------
$2F16  A0 00     LDY #$00
$2F18  A5 1B     LDA $1B 
$2F1A  91 0C     STA ($0C),Y 
$2F1C  C8        INY 
$2F1D  91 0C     STA ($0C),Y 
$2F1F  A5 0C     LDA $0C 
$2F21  38        SEC 
$2F22  E9 17     SBC #$17
$2F24  85 0C     STA $0C 
$2F26  A5 0D     LDA $0D 
$2F28  E9 00     SBC #$00
$2F2A  85 0D     STA $0D 
$2F2C  C6 02     DEC $02 
$2F2E  D0 E6     BNE L_BRS_($2F16)_($2F2E) OK
$2F30  60        RTS 
//------------------------------
L_BRS_($2F31)_($2F98) OK
//------------------------------
$2F31  A0 06     LDY #$06
$2F33  B1 00     LDA ($00),Y 
$2F35  C9 18     CMP #$18
$2F37  F0 3E     BEQ L_BRS_($2F77)_($2F37) OK
$2F39  0A        ASL A 
$2F3A  A0 03     LDY #$03
$2F3C  18        CLC 
$2F3D  71 00     ADC ($00),Y 
$2F3F  C9 AF     CMP #$AF
$2F41  90 6F     BCC L_BRS_($2FB2)_($2F41) OK
$2F43  AD BC 03  LDA $03BC 
$2F46  09 01     ORA #$01
$2F48  8D BC 03  STA $03BC 
$2F4B  20 54 30  JSR L_JSR_($3054)_($2F4B) OK
$2F4E  AD B4 03  LDA $03B4 
$2F51  0A        ASL A 
$2F52  0A        ASL A 
$2F53  0A        ASL A 
$2F54  0A        ASL A 
$2F55  85 13     STA $13 
$2F57  AD B3 03  LDA $03B3 
$2F5A  38        SEC 
$2F5B  E5 13     SBC $13 
$2F5D  85 19     STA $19 
$2F5F  20 57 30  JSR L_JSR_($3057)_($2F5F) OK
$2F62  EE B4 03  INC $03B4 
//------------------------------
L_JMP_($2F65)_($2871) OK
L_JMP_($2F65)_($2F8B) OK
//------------------------------
$2F65  A9 00     LDA #$00
$2F67  A8        TAY 
$2F68  91 00     STA ($00),Y 
$2F6A  A9 02     LDA #$02
$2F6C  8D A9 03  STA $03A9 
$2F6F  A9 10     LDA #$10
$2F71  8D AA 03  STA $03AA 
$2F74  4C 1A 26  JMP L_JMP_($261A)_($2F74) OK
//------------------------------
L_BRS_($2F77)_($2F37) OK
//------------------------------
$2F77  A0 03     LDY #$03
$2F79  B1 00     LDA ($00),Y 
$2F7B  C9 A8     CMP #$A8
$2F7D  90 33     BCC L_BRS_($2FB2)_($2F7D) OK
$2F7F  EE B2 03  INC $03B2 
$2F82  20 E9 35  JSR L_JSR_($35E9)_($2F82) OK
$2F85  20 DA 2F  JSR L_JSR_($2FDA)_($2F85) OK
$2F88  20 5A 30  JSR L_JSR_($305A)_($2F88) OK
$2F8B  4C 65 2F  JMP L_JMP_($2F65)_($2F8B) OK
$2F8E  20 D7 35  JSR L_JSR_($35D7)_($2F8E) OK
$2F91  A0 04     LDY #$04
$2F93  B1 00     LDA ($00),Y 
$2F95  2C 16 20  BIT $2016 
$2F98  D0 97     BNE L_BRS_($2F31)_($2F98) OK
$2F9A  2C 15 20  BIT $2015 
$2F9D  D0 7F     BNE L_BRS_($301E)_($2F9D) OK
$2F9F  2C 14 20  BIT $2014 
$2FA2  F0 19     BEQ L_BRS_($2FBD)_($2FA2) OK
$2FA4  20 58 2D  JSR L_JSR_($2D58)_($2FA4) OK
$2FA7  A5 02     LDA $02 
$2FA9  30 43     BMI L_BRS_($2FEE)_($2FA9) OK
$2FAB  20 B3 30  JSR L_JSR_($30B3)_($2FAB) OK
$2FAE  A5 02     LDA $02 
$2FB0  30 0B     BMI L_BRS_($2FBD)_($2FB0) OK
//------------------------------
L_BRS_($2FB2)_($2F41) OK
L_BRS_($2FB2)_($2F7D) OK
//------------------------------
$2FB2  A0 03     LDY #$03
$2FB4  B1 00     LDA ($00),Y 
$2FB6  18        CLC 
$2FB7  69 02     ADC #$02
$2FB9  09 01     ORA #$01
$2FBB  91 00     STA ($00),Y 
//------------------------------
L_BRS_($2FBD)_($2FA2) OK
L_BRS_($2FBD)_($2FB0) OK
L_JMP_($2FBD)_($301B) OK
L_JMP_($2FBD)_($3051) OK
//------------------------------
$2FBD  20 E9 35  JSR L_JSR_($35E9)_($2FBD) OK
$2FC0  20 DA 2F  JSR L_JSR_($2FDA)_($2FC0) OK
//------------------------------
L_JMP_($2FC3)_($289C) OK
//------------------------------
$2FC3  48        PHA 
$2FC4  20 E5 2F  JSR L_JSR_($2FE5)_($2FC4) OK
$2FC7  20 3D 37  JSR L_JSR_($373D)_($2FC7) OK
$2FCA  68        PLA 
$2FCB  20 E5 2F  JSR L_JSR_($2FE5)_($2FCB) OK
$2FCE  20 8D 37  JSR L_JSR_($378D)_($2FCE) OK
$2FD1  20 4C 36  JSR L_JSR_($364C)_($2FD1) OK
$2FD4  20 1F 38  JSR L_JSR_($381F)_($2FD4) OK
$2FD7  4C 1A 26  JMP L_JMP_($261A)_($2FD7) OK
//------------------------------
L_JSR_($2FDA)_($231F) OK
L_JSR_($2FDA)_($2F85) OK
L_JSR_($2FDA)_($2FC0) OK
L_JSR_($2FDA)_($3057) OK
//------------------------------
$2FDA  A5 59     LDA $59 
//------------------------------
L_JSR_($2FDC)_($285B) OK
//------------------------------
$2FDC  4A        LSR A 
$2FDD  29 06     AND #$06
$2FDF  A0 06     LDY #$06
$2FE1  18        CLC 
$2FE2  71 00     ADC ($00),Y 
$2FE4  60        RTS 
//------------------------------
L_JSR_($2FE5)_($285E) OK
L_JSR_($2FE5)_($2DF2) OK
L_JSR_($2FE5)_($2DF9) OK
L_JSR_($2FE5)_($2FC4) OK
L_JSR_($2FE5)_($2FCB) OK
L_JSR_($2FE5)_($305A) OK
//------------------------------
$2FE5  AA        TAX 
$2FE6  BD 87 3C  LDA $3C87,X 
$2FE9  A8        TAY 
$2FEA  BD 88 3C  LDA $3C88,X 
$2FED  60        RTS 
//------------------------------
L_BRS_($2FEE)_($2FA9) OK
//------------------------------
$2FEE  20 D7 35  JSR L_JSR_($35D7)_($2FEE) OK
$2FF1  A0 04     LDY #$04
$2FF3  B1 00     LDA ($00),Y 
$2FF5  09 02     ORA #$02
$2FF7  91 00     STA ($00),Y 
$2FF9  20 9D 25  JSR L_JSR_($259D)_($2FF9) OK
$2FFC            .byte $02,$00,$01,$FF
$3000  20 63 30  JSR L_JSR_($3063)_($3000) OK
$3003  A9 01     LDA #$01
$3005  8D A9 03  STA $03A9 
$3008  A9 10     LDA #$10
$300A  8D AA 03  STA $03AA 
$300D  A0 01     LDY #$01
$300F  AD 81 03  LDA $0381 
$3012  91 00     STA ($00),Y 
$3014  A0 03     LDY #$03
$3016  AD 83 03  LDA $0383 
$3019  91 00     STA ($00),Y 
$301B  4C BD 2F  JMP L_JMP_($2FBD)_($301B) OK
//------------------------------
L_BRS_($301E)_($2F9D) OK
//------------------------------
$301E  A0 01     LDY #$01
$3020  AD 81 03  LDA $0381 
$3023  18        CLC 
$3024  69 04     ADC #$04
$3026  91 00     STA ($00),Y 
$3028  C8        INY 
$3029  C8        INY 
$302A  AD 83 03  LDA $0383 
$302D  91 00     STA ($00),Y 
$302F  88        DEY 
$3030  88        DEY 
$3031  AD B1 03  LDA $03B1 
$3034  38        SEC 
$3035  F1 00     SBC ($00),Y 
$3037  10 05     BPL L_BRS_($303E)_($3037) OK
$3039  49 FF     EOR #$FF
$303B  18        CLC 
$303C  69 01     ADC #$01
//------------------------------
L_BRS_($303E)_($3037) OK
//------------------------------
$303E  C9 06     CMP #$06
$3040  B0 0F     BCS L_BRS_($3051)_($3040) OK
$3042  A0 04     LDY #$04
$3044  B1 00     LDA ($00),Y 
$3046  09 04     ORA #$04
$3048  91 00     STA ($00),Y 
$304A  AD B1 03  LDA $03B1 
$304D  A0 01     LDY #$01
$304F  91 00     STA ($00),Y 
//------------------------------
L_BRS_($3051)_($3040) OK
//------------------------------
$3051  4C BD 2F  JMP L_JMP_($2FBD)_($3051) OK
//------------------------------
L_JSR_($3054)_($2F4B) OK
//------------------------------
$3054  20 E9 35  JSR L_JSR_($35E9)_($3054) OK
//------------------------------
L_JSR_($3057)_($2F5F) OK
//------------------------------
$3057  20 DA 2F  JSR L_JSR_($2FDA)_($3057) OK
//------------------------------
L_JSR_($305A)_($2322) OK
L_JSR_($305A)_($2BD8) OK
L_JSR_($305A)_($2F88) OK
//------------------------------
$305A  20 E5 2F  JSR L_JSR_($2FE5)_($305A) OK
$305D  20 3D 37  JSR L_JSR_($373D)_($305D) OK
$3060  4C 04 36  JMP L_JMP_($3604)_($3060) OK
//------------------------------
L_JSR_($3063)_($286E) OK
L_JSR_($3063)_($2C89) OK
L_JSR_($3063)_($3000) OK
//------------------------------
$3063  A5 5E     LDA $5E 
$3065  D0 2A     BNE L_BRS_($3091)_($3065) OK
$3067  20 9D 25  JSR L_JSR_($259D)_($3067) OK
$306A            .byte $06,$51,$00,$FF
//------------------------------
L_JMP_($306E)_($3098) OK
//------------------------------
$306E  A0 02     LDY #$02
$3070            .byte $F8
$3071  B1 06     LDA ($06),Y 
$3073  18        CLC 
$3074  65 02     ADC $02 
$3076  91 06     STA ($06),Y 
$3078  88        DEY 
$3079  B1 06     LDA ($06),Y 
$307B  65 03     ADC $03 
$307D  91 06     STA ($06),Y 
$307F  88        DEY 
$3080  B1 06     LDA ($06),Y 
$3082  69 00     ADC #$00
$3084  91 06     STA ($06),Y 
$3086  D8        CLD 
$3087  A5 5E     LDA $5E 
$3089  D0 03     BNE L_BRS_($308E)_($3089) OK
$308B  4C 71 24  JMP L_JMP_($2471)_($308B) OK
//------------------------------
L_BRS_($308E)_($3089) OK
//------------------------------
$308E  4C 81 24  JMP L_JMP_($2481)_($308E) OK
//------------------------------
L_BRS_($3091)_($3065) OK
//------------------------------
$3091  20 9D 25  JSR L_JSR_($259D)_($3091) OK
$3094            .byte $06,$54,$00,$FF
$3098  4C 6E 30  JMP L_JMP_($306E)_($3098) OK
//------------------------------
L_BRS_($309B)_($30CB) OK
//------------------------------
$309B  49 FF     EOR #$FF
$309D  69 01     ADC #$01
$309F  C8        INY 
$30A0  C8        INY 
$30A1  AA        TAX 
$30A2  B1 08     LDA ($08),Y 
$30A4  0A        ASL A 
$30A5  0A        ASL A 
$30A6  0A        ASL A 
$30A7  85 0B     STA $0B 
$30A9  88        DEY 
$30AA  88        DEY 
$30AB  38        SEC 
$30AC  8A        TXA 
$30AD  E5 0B     SBC $0B 
$30AF  B0 23     BCS L_BRS_($30D4)_($30AF) OK
$30B1  90 39     BCC L_BRS_($30EC)_($30B1) OK
//------------------------------
L_JSR_($30B3)_($2841) OK
L_JSR_($30B3)_($2B16) OK
L_JSR_($30B3)_($2C6F) OK
L_JSR_($30B3)_($2FAB) OK
L_JSR_($30B3)_($327B) OK
L_JSR_($30B3)_($3370) OK
//------------------------------
$30B3  A0 01     LDY #$01
$30B5  B1 00     LDA ($00),Y 
$30B7  85 0E     STA $0E 
$30B9  C8        INY 
$30BA  C8        INY 
$30BB  B1 00     LDA ($00),Y 
$30BD  85 0F     STA $0F 
$30BF  20 43 31  JSR L_JSR_($3143)_($30BF) OK
//------------------------------
L_BRS_($30C2)_($311D) OK
//------------------------------
$30C2  A9 00     LDA #$00
$30C4  85 02     STA $02 
$30C6  B1 08     LDA ($08),Y 
$30C8  38        SEC 
$30C9  E5 0E     SBC $0E 
$30CB  90 CE     BCC L_BRS_($309B)_($30CB) OK
$30CD  AA        TAX 
$30CE  A9 01     LDA #$01
$30D0  20 38 31  JSR L_JSR_($3138)_($30D0) OK
$30D3  8A        TXA 
//------------------------------
L_BRS_($30D4)_($30AF) OK
//------------------------------
$30D4  C9 08     CMP #$08
$30D6  90 07     BCC L_BRS_($30DF)_($30D6) OK
$30D8  AA        TAX 
$30D9  A9 02     LDA #$02
$30DB  20 38 31  JSR L_JSR_($3138)_($30DB) OK
$30DE  8A        TXA 
//------------------------------
L_BRS_($30DF)_($30D6) OK
//------------------------------
$30DF  C9 10     CMP #$10
$30E1  B0 35     BCS L_BRS_($3118)_($30E1) OK
$30E3  C9 0C     CMP #$0C
$30E5  90 05     BCC L_BRS_($30EC)_($30E5) OK
$30E7  A9 04     LDA #$04
$30E9  20 38 31  JSR L_JSR_($3138)_($30E9) OK
//------------------------------
L_BRS_($30EC)_($30B1) OK
L_BRS_($30EC)_($30E5) OK
//------------------------------
$30EC  C8        INY 
$30ED  B1 08     LDA ($08),Y 
$30EF  38        SEC 
$30F0  E5 0F     SBC $0F 
$30F2  90 09     BCC L_BRS_($30FD)_($30F2) OK
$30F4  C9 04     CMP #$04
$30F6  B0 21     BCS L_BRS_($3119)_($30F6) OK
$30F8  A9 88     LDA #$88
$30FA  4C 38 31  JMP L_JMP_($3138)_($30FA) OK
//------------------------------
L_BRS_($30FD)_($30F2) OK
//------------------------------
$30FD  49 FF     EOR #$FF
$30FF  84 0B     STY $0B 
$3101  48        PHA 
$3102  A0 00     LDY #$00
$3104  B1 00     LDA ($00),Y 
$3106  29 3F     AND #$3F
$3108  C9 01     CMP #$01
$310A  D0 31     BNE L_BRS_($313D)_($310A) OK
$310C  68        PLA 
$310D  C9 22     CMP #$22
//------------------------------
L_JMP_($310F)_($3140) OK
//------------------------------
$310F  A4 0B     LDY $0B 
$3111  B0 06     BCS L_BRS_($3119)_($3111) OK
$3113  A9 80     LDA #$80
$3115  4C 38 31  JMP L_JMP_($3138)_($3115) OK
//------------------------------
L_BRS_($3118)_($30E1) OK
//------------------------------
$3118  C8        INY 
//------------------------------
L_BRS_($3119)_($30F6) OK
L_BRS_($3119)_($3111) OK
//------------------------------
$3119  C8        INY 
$311A  C8        INY 
$311B  C6 0A     DEC $0A 
$311D  D0 A3     BNE L_BRS_($30C2)_($311D) OK
$311F  A0 03     LDY #$03
$3121  B1 00     LDA ($00),Y 
$3123  C9 AE     CMP #$AE
$3125  90 09     BCC L_BRS_($3130)_($3125) OK
$3127  A9 AF     LDA #$AF
$3129  91 00     STA ($00),Y 
$312B  A9 88     LDA #$88
//------------------------------
L_BRS_($312D)_($3136) OK
//------------------------------
$312D  85 02     STA $02 
$312F  60        RTS 
//------------------------------
L_BRS_($3130)_($3125) OK
//------------------------------
$3130  C9 20     CMP #$20
$3132  B0 08     BCS L_BRS_($313C)_($3132) OK
$3134  A9 80     LDA #$80
$3136  30 F5     BMI L_BRS_($312D)_($3136) OK
//------------------------------
L_JSR_($3138)_($30D0) OK
L_JSR_($3138)_($30DB) OK
L_JSR_($3138)_($30E9) OK
L_JMP_($3138)_($30FA) OK
L_JMP_($3138)_($3115) OK
//------------------------------
$3138  05 02     ORA $02
$313A  85 02     STA $02 
//------------------------------
L_BRS_($313C)_($3132) OK
//------------------------------
$313C  60        RTS 
//------------------------------
L_BRS_($313D)_($310A) OK
//------------------------------
$313D  68        PLA 
$313E  C9 1A     CMP #$1A
$3140  4C 0F 31  JMP L_JMP_($310F)_($3140) OK
//------------------------------
L_JSR_($3143)_($30BF) OK
L_JSR_($3143)_($3152) OK
//------------------------------
$3143  A9 B6     LDA #$B6
$3145  85 08     STA $08 
$3147  A9 31     LDA #$31
$3149  85 09     STA $09 
$314B  A9 03     LDA #$03
$314D  85 0A     STA $0A 
$314F  A0 00     LDY #$00
$3151  60        RTS 
//------------------------------
L_JSR_($3152)_($22CB) OK
//------------------------------
$3152  20 43 31  JSR L_JSR_($3143)_($3152) OK
//------------------------------
L_BRS_($3155)_($319F) OK
//------------------------------
$3155  B1 08     LDA ($08),Y 
$3157  85 04     STA $04 
$3159  C8        INY 
$315A  B1 08     LDA ($08),Y 
$315C  85 05     STA $05 
$315E  C8        INY 
$315F  B1 08     LDA ($08),Y 
$3161  85 0B     STA $0B 
$3163  84 03     STY $03 
$3165  20 F7 34  JSR L_JSR_($34F7)_($3165) OK
$3168  20 1D 35  JSR L_JSR_($351D)_($3168) OK
$316B  A9 15     LDA #$15
$316D  85 06     STA $06 
$316F  A9 3E     LDA #$3E
$3171  85 07     STA $07 
$3173  A0 09     LDY #$09
$3175  20 B6 35  JSR L_JSR_($35B6)_($3175) OK
$3178  20 A8 31  JSR L_JSR_($31A8)_($3178) OK
//------------------------------
L_BRS_($317B)_($3184) OK
L_JMP_($317B)_($31A5) OK
//------------------------------
$317B  A0 09     LDY #$09
$317D  20 B6 35  JSR L_JSR_($35B6)_($317D) OK
$3180  C6 0B     DEC $0B 
$3182  F0 1E     BEQ L_BRS_($31A2)_($3182) OK
$3184  10 F5     BPL L_BRS_($317B)_($3184) OK
$3186  A4 03     LDY $03 
$3188  B1 08     LDA ($08),Y 
$318A  18        CLC 
$318B  69 01     ADC #$01
$318D  85 0B     STA $0B 
$318F  A0 00     LDY #$00
$3191  A9 05     LDA #$05
//------------------------------
L_BRS_($3193)_($3198) OK
//------------------------------
$3193  91 0C     STA ($0C),Y 
$3195  C8        INY 
$3196  C6 0B     DEC $0B 
$3198  10 F9     BPL L_BRS_($3193)_($3198) OK
$319A  A4 03     LDY $03 
$319C  C8        INY 
$319D  C6 0A     DEC $0A 
$319F  D0 B4     BNE L_BRS_($3155)_($319F) OK
$31A1  60        RTS 
//------------------------------
L_BRS_($31A2)_($3182) OK
//------------------------------
$31A2  20 A8 31  JSR L_JSR_($31A8)_($31A2) OK
$31A5  4C 7B 31  JMP L_JMP_($317B)_($31A5) OK
//------------------------------
L_JSR_($31A8)_($3178) OK
L_JSR_($31A8)_($31A2) OK
//------------------------------
$31A8  A5 06     LDA $06 
$31AA  18        CLC 
$31AB  69 0A     ADC #$0A
$31AD  85 06     STA $06 
$31AF  A5 07     LDA $07 
$31B1  69 00     ADC #$00
$31B3  85 07     STA $07 
$31B5  60        RTS 
//------------------------------
$31B6            .byte $10,$40,$03,$50,$60,$01,$88,$30
$31BE            .byte $03
//------------------------------
L_BRS_($31BF)_($3203) OK
//------------------------------
$31BF  A0 02     LDY #$02
$31C1  18        CLC 
$31C2  2C 14 20  BIT $2014 
$31C5  F0 18     BEQ L_BRS_($31DF)_($31C5) OK
$31C7  B1 00     LDA ($00),Y 
$31C9  10 03     BPL L_BRS_($31CE)_($31C9) OK
//------------------------------
L_BRS_($31CB)_($31E3) OK
L_BRS_($31CB)_($31FB) OK
//------------------------------
$31CB  4C 85 32  JMP L_JMP_($3285)_($31CB) OK
//------------------------------
L_BRS_($31CE)_($31C9) OK
//------------------------------
$31CE  F0 07     BEQ L_BRS_($31D7)_($31CE) OK
$31D0  49 FF     EOR #$FF
$31D2  69 03     ADC #$03
//------------------------------
L_BRS_($31D4)_($31DD) OK
//------------------------------
$31D4  4C A2 32  JMP L_JMP_($32A2)_($31D4) OK
//------------------------------
L_BRS_($31D7)_($31CE) OK
//------------------------------
$31D7  A0 00     LDY #$00
$31D9  24 1C     BIT $1C 
$31DB  50 4B     BVC L_BRS_($3228)_($31DB) OK
$31DD  70 F5     BVS L_BRS_($31D4)_($31DD) OK
//------------------------------
L_BRS_($31DF)_($31C5) OK
//------------------------------
$31DF  B1 00     LDA ($00),Y 
$31E1  F0 07     BEQ L_BRS_($31EA)_($31E1) OK
$31E3  10 E6     BPL L_BRS_($31CB)_($31E3) OK
$31E5  49 FF     EOR #$FF
//------------------------------
L_BRS_($31E7)_($31F0) OK
//------------------------------
$31E7  4C A2 32  JMP L_JMP_($32A2)_($31E7) OK
//------------------------------
L_BRS_($31EA)_($31E1) OK
//------------------------------
$31EA  A0 00     LDY #$00
$31EC  24 1C     BIT $1C 
$31EE  10 4E     BPL L_BRS_($323E)_($31EE) OK
$31F0  30 F5     BMI L_BRS_($31E7)_($31F0) OK
//------------------------------
L_JMP_($31F2)_($3282) OK
//------------------------------
$31F2  2C 17 20  BIT $2017 
$31F5  F0 09     BEQ L_BRS_($3200)_($31F5) OK
$31F7  A0 04     LDY #$04
$31F9  B1 00     LDA ($00),Y 
$31FB  30 CE     BMI L_BRS_($31CB)_($31FB) OK
$31FD  4C 21 33  JMP L_JMP_($3321)_($31FD) OK
//------------------------------
L_BRS_($3200)_($31F5) OK
//------------------------------
$3200  2C 16 20  BIT $2016 
$3203  D0 BA     BNE L_BRS_($31BF)_($3203) OK
$3205  4C 85 32  JMP L_JMP_($3285)_($3205) OK
//------------------------------
L_JMP_($3208)_($32C4) OK
//------------------------------
$3208  A0 04     LDY #$04
$320A  B1 00     LDA ($00),Y 
$320C  F0 0A     BEQ L_BRS_($3218)_($320C) OK
$320E  10 05     BPL L_BRS_($3215)_($320E) OK
$3210  49 FF     EOR #$FF
//------------------------------
L_BRS_($3212)_($3222) OK
//------------------------------
$3212  4C DE 32  JMP L_JMP_($32DE)_($3212) OK
//------------------------------
L_BRS_($3215)_($320E) OK
//------------------------------
$3215  4C C7 32  JMP L_JMP_($32C7)_($3215) OK
//------------------------------
L_BRS_($3218)_($320C) OK
//------------------------------
$3218  AA        TAX 
$3219  A5 1C     LDA $1C 
$321B  2C 18 20  BIT $2018 
$321E  D0 04     BNE L_BRS_($3224)_($321E) OK
$3220  A9 00     LDA #$00
$3222  F0 EE     BEQ L_BRS_($3212)_($3222) OK
//------------------------------
L_BRS_($3224)_($321E) OK
//------------------------------
$3224  8A        TXA 
$3225  4C C7 32  JMP L_JMP_($32C7)_($3225) OK
//------------------------------
L_BRS_($3228)_($31DB) OK
L_BRS_($3228)_($328F) OK
//------------------------------
$3228  48        PHA 
$3229  B1 00     LDA ($00),Y 
$322B  09 80     ORA #$80
$322D  91 00     STA ($00),Y 
$322F  68        PLA 
$3230  C9 F8     CMP #$F8
$3232  F0 72     BEQ L_BRS_($32A6)_($3232) OK
$3234  C9 F7     CMP #$F7
$3236  F0 6A     BEQ L_BRS_($32A2)_($3236) OK
$3238  38        SEC 
$3239  E9 01     SBC #$01
$323B  4C A2 32  JMP L_JMP_($32A2)_($323B) OK
//------------------------------
L_BRS_($323E)_($31EE) OK
L_BRS_($323E)_($328D) OK
//------------------------------
$323E  48        PHA 
$323F  B1 00     LDA ($00),Y 
$3241  29 7F     AND #$7F
$3243  91 00     STA ($00),Y 
$3245  68        PLA 
$3246  C9 08     CMP #$08
$3248  F0 5C     BEQ L_BRS_($32A6)_($3248) OK
$324A  C9 09     CMP #$09
$324C  F0 06     BEQ L_BRS_($3254)_($324C) OK
$324E  18        CLC 
$324F  69 01     ADC #$01
$3251  4C A2 32  JMP L_JMP_($32A2)_($3251) OK
//------------------------------
L_BRS_($3254)_($324C) OK
//------------------------------
$3254  A9 08     LDA #$08
$3256  4C A2 32  JMP L_JMP_($32A2)_($3256) OK
$3259  A9 F8     LDA #$F8
$325B  4C A2 32  JMP L_JMP_($32A2)_($325B) OK
//------------------------------
L_BRS_($325E)_($329D) OK
//------------------------------
$325E  18        CLC 
$325F  69 01     ADC #$01
$3261  4C A2 32  JMP L_JMP_($32A2)_($3261) OK
//------------------------------
L_BRS_($3264)_($32B4) OK
//------------------------------
$3264  18        CLC 
$3265  69 B8     ADC #$B8
$3267  4C BA 32  JMP L_JMP_($32BA)_($3267) OK
//------------------------------
L_BRS_($326A)_($32B8) OK
//------------------------------
$326A  69 48     ADC #$48
$326C  4C BA 32  JMP L_JMP_($32BA)_($326C) OK
//------------------------------
L_BRS_($326F)_($3296) OK
//------------------------------
$326F  8A        TXA 
$3270  4C A6 32  JMP L_JMP_($32A6)_($3270) OK
$3273  20 D7 35  JSR L_JSR_($35D7)_($3273) OK
$3276  20 F7 33  JSR L_JSR_($33F7)_($3276) OK
$3279  85 1C     STA $1C 
$327B  20 B3 30  JSR L_JSR_($30B3)_($327B) OK
$327E  A5 02     LDA $02 
$3280  10 03     BPL L_BRS_($3285)_($3280) OK
$3282  4C F2 31  JMP L_JMP_($31F2)_($3282) OK
//------------------------------
L_JMP_($3285)_($31CB) OK
L_JMP_($3285)_($3205) OK
L_BRS_($3285)_($3280) OK
//------------------------------
$3285  A0 02     LDY #$02
$3287  B1 00     LDA ($00),Y 
$3289  A0 00     LDY #$00
$328B  24 1C     BIT $1C 
$328D  10 AF     BPL L_BRS_($323E)_($328D) OK
$328F  50 97     BVC L_BRS_($3228)_($328F) OK
$3291  AA        TAX 
$3292  A5 4A     LDA $4A 
$3294  29 01     AND #$01
$3296  F0 D7     BEQ L_BRS_($326F)_($3296) OK
$3298  8A        TXA 
$3299  C9 00     CMP #$00
$329B  F0 09     BEQ L_BRS_($32A6)_($329B) OK
$329D  30 BF     BMI L_BRS_($325E)_($329D) OK
$329F  38        SEC 
$32A0  E9 01     SBC #$01
//------------------------------
L_JMP_($32A2)_($31D4) OK
L_JMP_($32A2)_($31E7) OK
L_BRS_($32A2)_($3236) OK
L_JMP_($32A2)_($323B) OK
L_JMP_($32A2)_($3251) OK
L_JMP_($32A2)_($3256) OK
L_JMP_($32A2)_($325B) OK
L_JMP_($32A2)_($3261) OK
//------------------------------
$32A2  A0 02     LDY #$02
$32A4  91 00     STA ($00),Y 
//------------------------------
L_BRS_($32A6)_($3232) OK
L_BRS_($32A6)_($3248) OK
L_JMP_($32A6)_($3270) OK
L_BRS_($32A6)_($329B) OK
//------------------------------
$32A6  A0 01     LDY #$01
$32A8  48        PHA 
$32A9  2A        ROL A 
$32AA  68        PLA 
$32AB  08        PHP 
$32AC  6A        ROR A 
$32AD  28        PLP 
$32AE  6A        ROR A 
$32AF  18        CLC 
$32B0  71 00     ADC ($00),Y 
$32B2  C9 F0     CMP #$F0
$32B4  B0 AE     BCS L_BRS_($3264)_($32B4) OK
$32B6  C9 B8     CMP #$B8
$32B8  B0 B0     BCS L_BRS_($326A)_($32B8) OK
//------------------------------
L_JMP_($32BA)_($3267) OK
L_JMP_($32BA)_($326C) OK
//------------------------------
$32BA  91 00     STA ($00),Y 
$32BC  A5 02     LDA $02 
$32BE  10 07     BPL L_BRS_($32C7)_($32BE) OK
$32C0  29 0C     AND #$0C
$32C2  D0 03     BNE L_BRS_($32C7)_($32C2) OK
$32C4  4C 08 32  JMP L_JMP_($3208)_($32C4) OK
//------------------------------
L_JMP_($32C7)_($3215) OK
L_JMP_($32C7)_($3225) OK
L_BRS_($32C7)_($32BE) OK
L_BRS_($32C7)_($32C2) OK
//------------------------------
$32C7  A0 04     LDY #$04
$32C9  A5 1C     LDA $1C 
$32CB  2C 19 20  BIT $2019 
$32CE  F0 48     BEQ L_BRS_($3318)_($32CE) OK
$32D0  2C 18 20  BIT $2018 
$32D3  F0 37     BEQ L_BRS_($330C)_($32D3) OK
$32D5  B1 00     LDA ($00),Y 
$32D7  C9 04     CMP #$04
$32D9  F0 05     BEQ L_BRS_($32E0)_($32D9) OK
$32DB  18        CLC 
$32DC  69 01     ADC #$01
//------------------------------
L_JMP_($32DE)_($3212) OK
L_JMP_($32DE)_($3315) OK
L_JMP_($32DE)_($331A) OK
//------------------------------
$32DE  91 00     STA ($00),Y 
//------------------------------
L_BRS_($32E0)_($32D9) OK
L_BRS_($32E0)_($3310) OK
//------------------------------
$32E0  88        DEY 
$32E1  48        PHA 
$32E2  2A        ROL A 
$32E3  68        PLA 
$32E4  6A        ROR A 
$32E5  18        CLC 
$32E6  71 00     ADC ($00),Y 
$32E8  C9 AF     CMP #$AF
$32EA  B0 31     BCS L_BRS_($331D)_($32EA) OK
$32EC  C9 28     CMP #$28
$32EE  B0 07     BCS L_BRS_($32F7)_($32EE) OK
$32F0  C8        INY 
$32F1  B1 00     LDA ($00),Y 
$32F3  F0 02     BEQ L_BRS_($32F7)_($32F3) OK
$32F5  49 FF     EOR #$FF
//------------------------------
L_BRS_($32F7)_($32EE) OK
L_BRS_($32F7)_($32F3) OK
L_JMP_($32F7)_($3329) OK
L_JMP_($32F7)_($33D1) OK
//------------------------------
$32F7  91 00     STA ($00),Y 
//------------------------------
L_JMP_($32F9)_($33B7) OK
//------------------------------
$32F9  20 46 36  JSR L_JSR_($3646)_($32F9) OK
$32FC  20 1F 38  JSR L_JSR_($381F)_($32FC) OK
$32FF  A5 1C     LDA $1C 
$3301  2C 17 20  BIT $2017 
$3304  D0 03     BNE L_BRS_($3309)_($3304) OK
$3306  20 E9 20  JSR L_JSR_($20E9)_($3306) OK
//------------------------------
L_BRS_($3309)_($3304) OK
//------------------------------
$3309  4C 1A 26  JMP L_JMP_($261A)_($3309) OK
//------------------------------
L_BRS_($330C)_($32D3) OK
//------------------------------
$330C  B1 00     LDA ($00),Y 
$330E  C9 FC     CMP #$FC
$3310  F0 CE     BEQ L_BRS_($32E0)_($3310) OK
$3312  38        SEC 
$3313  E9 01     SBC #$01
$3315  4C DE 32  JMP L_JMP_($32DE)_($3315) OK
//------------------------------
L_BRS_($3318)_($32CE) OK
//------------------------------
$3318  A9 00     LDA #$00
$331A  4C DE 32  JMP L_JMP_($32DE)_($331A) OK
//------------------------------
L_BRS_($331D)_($32EA) OK
//------------------------------
$331D  A9 AF     LDA #$AF
$331F  91 00     STA ($00),Y 
//------------------------------
L_JMP_($3321)_($31FD) OK
//------------------------------
$3321  A0 00     LDY #$00
$3323  B1 00     LDA ($00),Y 
$3325  2A        ROL A 
$3326  A9 04     LDA #$04
$3328  6A        ROR A 
$3329  4C F7 32  JMP L_JMP_($32F7)_($3329) OK
//------------------------------
L_BRS_($332C)_($3381) OK
//------------------------------
$332C  B1 00     LDA ($00),Y 
$332E  29 7F     AND #$7F
$3330  91 00     STA ($00),Y 
$3332  A9 01     LDA #$01
$3334  4C 9F 33  JMP L_JMP_($339F)_($3334) OK
//------------------------------
L_BRS_($3337)_($3383) OK
//------------------------------
$3337  B1 00     LDA ($00),Y 
$3339  09 80     ORA #$80
$333B  91 00     STA ($00),Y 
$333D  A9 FF     LDA #$FF
$333F  4C 9F 33  JMP L_JMP_($339F)_($333F) OK
//------------------------------
L_BRS_($3342)_($33A9) OK
//------------------------------
$3342  18        CLC 
$3343  69 B8     ADC #$B8
$3345  4C AF 33  JMP L_JMP_($33AF)_($3345) OK
//------------------------------
L_BRS_($3348)_($33AD) OK
//------------------------------
$3348  69 48     ADC #$48
$334A  4C AF 33  JMP L_JMP_($33AF)_($334A) OK
$334D  A5 5D     LDA $5D 
$334F  F0 19     BEQ L_BRS_($336A)_($334F) OK
$3351  20 65 34  JSR L_JSR_($3465)_($3351) OK
$3354  C6 5D     DEC $5D 
$3356  D0 0F     BNE L_BRS_($3367)_($3356) OK
$3358  20 01 36  JSR L_JSR_($3601)_($3358) OK
$335B  20 1F 38  JSR L_JSR_($381F)_($335B) OK
$335E  20 25 24  JSR L_JSR_($2425)_($335E) OK
$3361  20 71 24  JSR L_JSR_($2471)_($3361) OK
$3364  20 81 24  JSR L_JSR_($2481)_($3364) OK
//------------------------------
L_BRS_($3367)_($3356) OK
//------------------------------
$3367  4C 1A 26  JMP L_JMP_($261A)_($3367) OK
//------------------------------
L_BRS_($336A)_($334F) OK
//------------------------------
$336A  20 D7 35  JSR L_JSR_($35D7)_($336A) OK
$336D  20 F7 33  JSR L_JSR_($33F7)_($336D) OK
$3370  20 B3 30  JSR L_JSR_($30B3)_($3370) OK
$3373  A5 02     LDA $02 
$3375  30 06     BMI L_BRS_($337D)_($3375) OK
$3377  A0 03     LDY #$03
$3379  B1 00     LDA ($00),Y 
$337B  10 43     BPL L_BRS_($33C0)_($337B) OK
//------------------------------
L_BRS_($337D)_($3375) OK
//------------------------------
$337D  A0 00     LDY #$00
$337F  24 1C     BIT $1C 
$3381  10 A9     BPL L_BRS_($332C)_($3381) OK
$3383  50 B2     BVC L_BRS_($3337)_($3383) OK
$3385  B1 00     LDA ($00),Y 
$3387  30 04     BMI L_BRS_($338D)_($3387) OK
$3389  A2 01     LDX #$01
$338B  10 02     BPL L_BRS_($338F)_($338B) OK
//------------------------------
L_BRS_($338D)_($3387) OK
//------------------------------
$338D  A2 FF     LDX #$FF
//------------------------------
L_BRS_($338F)_($338B) OK
//------------------------------
$338F  A0 02     LDY #$02
$3391  A5 02     LDA $02 
$3393  10 08     BPL L_BRS_($339D)_($3393) OK
$3395  2C 15 20  BIT $2015 
$3398  08        PHP 
$3399  8A        TXA 
$339A  28        PLP 
$339B  D0 02     BNE L_BRS_($339F)_($339B) OK
//------------------------------
L_BRS_($339D)_($3393) OK
//------------------------------
$339D  A9 00     LDA #$00
//------------------------------
L_JMP_($339F)_($3334) OK
L_JMP_($339F)_($333F) OK
L_BRS_($339F)_($339B) OK
//------------------------------
$339F  A0 02     LDY #$02
$33A1  91 00     STA ($00),Y 
$33A3  88        DEY 
$33A4  18        CLC 
$33A5  71 00     ADC ($00),Y 
$33A7  C9 F0     CMP #$F0
$33A9  B0 97     BCS L_BRS_($3342)_($33A9) OK
$33AB  C9 B8     CMP #$B8
$33AD  B0 99     BCS L_BRS_($3348)_($33AD) OK
//------------------------------
L_JMP_($33AF)_($3345) OK
L_JMP_($33AF)_($334A) OK
//------------------------------
$33AF  91 00     STA ($00),Y 
$33B1  A5 1C     LDA $1C 
$33B3  29 10     AND #$10
$33B5  F0 03     BEQ L_BRS_($33BA)_($33B5) OK
$33B7  4C F9 32  JMP L_JMP_($32F9)_($33B7) OK
//------------------------------
L_BRS_($33BA)_($33B5) OK
//------------------------------
$33BA  A0 04     LDY #$04
$33BC  A9 FE     LDA #$FE
$33BE  91 00     STA ($00),Y 
//------------------------------
L_BRS_($33C0)_($337B) OK
//------------------------------
$33C0  A0 03     LDY #$03
$33C2  B1 00     LDA ($00),Y 
$33C4  38        SEC 
$33C5  E9 03     SBC #$03
$33C7  91 00     STA ($00),Y 
$33C9  A0 00     LDY #$00
$33CB  B1 00     LDA ($00),Y 
$33CD  2A        ROL A 
$33CE  A9 02     LDA #$02
$33D0  6A        ROR A 
$33D1  4C F7 32  JMP L_JMP_($32F7)_($33D1) OK
//------------------------------
L_BRS_($33D4)_($33FD) OK
//------------------------------
$33D4  AD 11 91  LDA $9111 
$33D7  2A        ROL A 
$33D8  2A        ROL A 
$33D9  09 8F     ORA #$8F
$33DB  85 1C     STA $1C 
$33DD  AD 11 91  LDA $9111 
$33E0  6A        ROR A 
$33E1  6A        ROR A 
$33E2  09 F7     ORA #$F7
$33E4  25 1C     AND $1C
$33E6  85 1C     STA $1C 
$33E8  A9 00     LDA #$00
$33EA  8D 22 91  STA $9122 
$33ED  AD 20 91  LDA $9120 
$33F0  09 7F     ORA #$7F
$33F2  25 1C     AND $1C
$33F4  85 1C     STA $1C 
$33F6  60        RTS 
//------------------------------
L_JSR_($33F7)_($3276) OK
L_JSR_($33F7)_($336D) OK
//------------------------------
$33F7  AD D3 1F  LDA $1FD3 
$33FA  2C 15 20  BIT $2015 
$33FD  D0 D5     BNE L_BRS_($33D4)_($33FD) OK
$33FF  A9 FF     LDA #$FF
$3401  8D 23 91  STA $9123 
$3404  A9 81     LDA #$81
$3406  8D 21 91  STA $9121 
$3409  A9 00     LDA #$00
$340B  8D 22 91  STA $9122 
$340E  AD 20 91  LDA $9120 
$3411  2A        ROL A 
$3412  2A        ROL A 
$3413  2A        ROL A 
$3414  09 3F     ORA #$3F
$3416  85 1C     STA $1C 
$3418  AD 20 91  LDA $9120 
$341B  A8        TAY 
$341C  6A        ROR A 
$341D  6A        ROR A 
$341E  09 F7     ORA #$F7
$3420  25 1C     AND $1C
$3422  85 1C     STA $1C 
$3424  98        TYA 
$3425  2A        ROL A 
$3426  09 F7     ORA #$F7
$3428  25 1C     AND $1C
$342A  85 1C     STA $1C 
$342C  A9 80     LDA #$80
$342E  8D 21 91  STA $9121 
$3431  AD 20 91  LDA $9120 
$3434  6A        ROR A 
$3435  6A        ROR A 
$3436  09 EF     ORA #$EF
$3438  25 1C     AND $1C
$343A  85 1C     STA $1C 
$343C  A9 81     LDA #$81
$343E  8D 21 91  STA $9121 
$3441  AD 20 91  LDA $9120 
$3444  2A        ROL A 
$3445  2A        ROL A 
$3446  2A        ROL A 
$3447  09 EF     ORA #$EF
$3449  25 1C     AND $1C
$344B  85 1C     STA $1C 
$344D  A9 80     LDA #$80
$344F  8D 21 91  STA $9121 
$3452  AD 20 91  LDA $9120 
$3455  A8        TAY 
$3456  20 5C 34  JSR L_JSR_($345C)_($3456) OK
$3459  98        TYA 
$345A  6A        ROR A 
$345B  6A        ROR A 
//------------------------------
L_JSR_($345C)_($3456) OK
//------------------------------
$345C  6A        ROR A 
$345D  6A        ROR A 
$345E  09 DF     ORA #$DF
$3460  25 1C     AND $1C
$3462  85 1C     STA $1C 
$3464  60        RTS 
//------------------------------
L_JSR_($3465)_($3351) OK
//------------------------------
$3465  A5 5E     LDA $5E 
$3467  D0 31     BNE L_BRS_($349A)_($3467) OK
$3469  20 9D 25  JSR L_JSR_($259D)_($3469) OK
$346C            .byte $04,$00,$00,$FF
//------------------------------
L_JMP_($3470)_($34A1) OK
//------------------------------
$3470  20 1D 35  JSR L_JSR_($351D)_($3470) OK
$3473  A5 4A     LDA $4A 
$3475  29 07     AND #$07
$3477  D0 20     BNE L_BRS_($3499)_($3477) OK
$3479  A2 06     LDX #$06
//------------------------------
L_JMP_($347B)_($3496) OK
//------------------------------
$347B  A0 0F     LDY #$0F
//------------------------------
L_BRS_($347D)_($3484) OK
//------------------------------
$347D  B1 04     LDA ($04),Y 
$347F  49 FF     EOR #$FF
$3481  91 04     STA ($04),Y 
$3483  88        DEY 
$3484  10 F7     BPL L_BRS_($347D)_($3484) OK
$3486  CA        DEX 
$3487  F0 10     BEQ L_BRS_($3499)_($3487) OK
$3489  A5 04     LDA $04 
$348B  18        CLC 
$348C  69 B0     ADC #$B0
$348E  85 04     STA $04 
$3490  A5 05     LDA $05 
$3492  69 00     ADC #$00
$3494  85 05     STA $05 
$3496  4C 7B 34  JMP L_JMP_($347B)_($3496) OK
//------------------------------
L_BRS_($3499)_($3477) OK
L_BRS_($3499)_($3487) OK
//------------------------------
$3499  60        RTS 
//------------------------------
L_BRS_($349A)_($3467) OK
//------------------------------
$349A  20 9D 25  JSR L_JSR_($259D)_($349A) OK
$349D            .byte $04,$80,$00,$FF
$34A1  4C 70 34  JMP L_JMP_($3470)_($34A1) OK
//------------------------------
L_JMP_($34A4)_($247E) OK
L_JMP_($34A4)_($248E) OK
L_JMP_($34A4)_($249E) OK
L_BRS_($34A4)_($34C9) OK
//------------------------------
$34A4  A0 00     LDY #$00
$34A6  B1 0E     LDA ($0E),Y 
$34A8  4A        LSR A 
$34A9  4A        LSR A 
$34AA  4A        LSR A 
$34AB  4A        LSR A 
$34AC  18        CLC 
$34AD  69 70     ADC #$70
$34AF  85 06     STA $06 
$34B1  20 95 35  JSR L_JSR_($3595)_($34B1) OK
$34B4  A0 00     LDY #$00
$34B6  B1 0E     LDA ($0E),Y 
$34B8  29 0F     AND #$0F
$34BA  69 70     ADC #$70
$34BC  85 06     STA $06 
$34BE  20 95 35  JSR L_JSR_($3595)_($34BE) OK
$34C1  E6 0E     INC $0E 
$34C3  D0 02     BNE L_BRS_($34C7)_($34C3) OK
$34C5  E6 07     INC $07 
//------------------------------
L_BRS_($34C7)_($34C3) OK
//------------------------------
$34C7  C6 02     DEC $02 
$34C9  D0 D9     BNE L_BRS_($34A4)_($34C9) OK
$34CB  60        RTS 
//------------------------------
L_JSR_($34CC)_($2445) OK
L_JSR_($34CC)_($24D4) OK
L_JSR_($34CC)_($24E1) OK
L_JSR_($34CC)_($29F8) OK
//------------------------------
$34CC  20 F7 34  JSR L_JSR_($34F7)_($34CC) OK
$34CF  20 1D 35  JSR L_JSR_($351D)_($34CF) OK
$34D2  A0 00     LDY #$00
$34D4  B1 0E     LDA ($0E),Y 
//------------------------------
L_JSR_($34D6)_($2506) OK
L_JMP_($34D6)_($34E0) OK
//------------------------------
$34D6  AA        TAX 
$34D7  C8        INY 
$34D8  B1 0E     LDA ($0E),Y 
$34DA  0A        ASL A 
$34DB  B0 06     BCS L_BRS_($34E3)_($34DB) OK
$34DD  20 E3 34  JSR L_JSR_($34E3)_($34DD) OK
$34E0  4C D6 34  JMP L_JMP_($34D6)_($34E0) OK
//------------------------------
L_BRS_($34E3)_($34DB) OK
L_JSR_($34E3)_($34DD) OK
//------------------------------
$34E3  4A        LSR A 
$34E4  85 06     STA $06 
$34E6  8A        TXA 
$34E7  85 57     STA $57 
$34E9  98        TYA 
$34EA  48        PHA 
$34EB  20 95 35  JSR L_JSR_($3595)_($34EB) OK
$34EE  68        PLA 
$34EF  A8        TAY 
$34F0  A5 57     LDA $57 
$34F2  88        DEY 
$34F3  91 0C     STA ($0C),Y 
$34F5  C8        INY 
$34F6  60        RTS 
//------------------------------
L_JSR_($34F7)_($21BB) OK
L_JSR_($34F7)_($24FA) OK
L_JSR_($34F7)_($27FF) OK
L_JSR_($34F7)_($2F13) OK
L_JSR_($34F7)_($3165) OK
L_JSR_($34F7)_($34CC) OK
L_JSR_($34F7)_($3827) OK
//------------------------------
$34F7  A5 04     LDA $04 
$34F9  4A        LSR A 
$34FA  4A        LSR A 
$34FB  4A        LSR A 
$34FC  85 0C     STA $0C 
$34FE  A5 05     LDA $05 
$3500  4A        LSR A 
$3501  4A        LSR A 
$3502  4A        LSR A 
$3503  4A        LSR A 
$3504  AA        TAX 
$3505  BD 12 35  LDA $3512,X 
$3508  18        CLC 
$3509  65 0C     ADC $0C 
$350B  85 0C     STA $0C 
$350D  A9 96     LDA #$96
$350F  85 0D     STA $0D 
$3511  60        RTS 
//------------------------------
$3512            .byte $00,$17,$2E,$45,$5C,$73,$8A,$A1
$351A            .byte $B8,$CF,$E6
//------------------------------
L_JSR_($351D)_($21BE) OK
L_JSR_($351D)_($226E) OK
L_JSR_($351D)_($24FD) OK
L_JSR_($351D)_($3168) OK
L_JSR_($351D)_($3470) OK
L_JSR_($351D)_($34CF) OK
L_JSR_($351D)_($375D) OK
L_JSR_($351D)_($37AB) OK
//------------------------------
$351D  A5 05     LDA $05 
$351F  A8        TAY 
$3520  A5 04     LDA $04 
$3522  4A        LSR A 
$3523  4A        LSR A 
$3524  4A        LSR A 
$3525  AA        TAX 
$3526  BD 45 35  LDA $3545,X 
$3529  85 04     STA $04 
$352B  A9 00     LDA #$00
$352D  85 05     STA $05 
$352F  A2 04     LDX #$04
//------------------------------
L_BRS_($3531)_($3536) OK
//------------------------------
$3531  06 04     ASL $04 
$3533  26 05     ROL $05 
$3535  CA        DEX 
$3536  D0 F9     BNE L_BRS_($3531)_($3536) OK
$3538  98        TYA 
$3539  18        CLC 
$353A  65 04     ADC $04 
$353C  85 04     STA $04 
$353E  A9 10     LDA #$10
$3540  65 05     ADC $05 
$3542  85 05     STA $05 
$3544  60        RTS 
//------------------------------
$3545            .byte $00,$0B,$16,$21,$2C,$37,$42,$4D
$354D            .byte $58,$63,$6E,$79,$84,$8F,$9A,$A5
$3555            .byte $B0,$BB,$C6,$D1,$DC,$E7,$F2
//------------------------------
L_JSR_($355C)_($2416) OK
//------------------------------
$355C  20 9D 25  JSR L_JSR_($259D)_($355C) OK
$355F            .byte $02,$FC,$00,$04,$00,$96,$06,$01
$3567            .byte $00,$FF
$3569  4C 79 35  JMP L_JMP_($3579)_($3569) OK
//------------------------------
L_JSR_($356C)_($2419) OK
//------------------------------
$356C  20 9D 25  JSR L_JSR_($259D)_($356C) OK
$356F            .byte $02,$CF,$0F,$04,$00,$10,$06,$00
$3577            .byte $00,$FF
//------------------------------
L_JMP_($3579)_($3569) OK
//------------------------------
$3579  A0 00     LDY #$00
//------------------------------
L_BRS_($357B)_($358A) OK
L_BRS_($357B)_($3592) OK
//------------------------------
$357B  A5 06     LDA $06 
$357D  91 04     STA ($04),Y 
$357F  C8        INY 
$3580  D0 02     BNE L_BRS_($3584)_($3580) OK
$3582  E6 05     INC $05 
//------------------------------
L_BRS_($3584)_($3580) OK
//------------------------------
$3584  C6 02     DEC $02 
$3586  A5 02     LDA $02 
$3588  C9 FF     CMP #$FF
$358A  D0 EF     BNE L_BRS_($357B)_($358A) OK
$358C  C6 03     DEC $03 
$358E  A5 03     LDA $03 
$3590  C9 FF     CMP #$FF
$3592  D0 E7     BNE L_BRS_($357B)_($3592) OK
$3594  60        RTS 
//------------------------------
L_JSR_($3595)_($2393) OK
L_JSR_($3595)_($23AC) OK
L_JMP_($3595)_($23B3) OK
L_JSR_($3595)_($34B1) OK
L_JSR_($3595)_($34BE) OK
L_JSR_($3595)_($34EB) OK
//------------------------------
$3595  A9 00     LDA #$00
$3597  85 07     STA $07 
$3599  A5 06     LDA $06 
$359B  38        SEC 
$359C  E9 40     SBC #$40
$359E  85 06     STA $06 
$35A0  A2 03     LDX #$03
//------------------------------
L_BRS_($35A2)_($35A8) OK
//------------------------------
$35A2  18        CLC 
$35A3  26 06     ROL $06 
$35A5  26 07     ROL $07 
$35A7  CA        DEX 
$35A8  D0 F8     BNE L_BRS_($35A2)_($35A8) OK
$35AA  A5 07     LDA $07 
$35AC  69 80     ADC #$80
$35AE  85 07     STA $07 
$35B0  A0 07     LDY #$07
$35B2  A5 57     LDA $57 
$35B4  30 15     BMI L_BRS_($35CB)_($35B4) OK
//------------------------------
L_JMP_($35B6)_($239F) OK
L_JSR_($35B6)_($3175) OK
L_JSR_($35B6)_($317D) OK
L_BRS_($35B6)_($35BB) OK
//------------------------------
$35B6  B1 06     LDA ($06),Y 
$35B8  91 04     STA ($04),Y 
$35BA  88        DEY 
$35BB  10 F9     BPL L_BRS_($35B6)_($35BB) OK
//------------------------------
L_JMP_($35BD)_($35D4) OK
//------------------------------
$35BD  A5 04     LDA $04 
$35BF  18        CLC 
$35C0  69 B0     ADC #$B0
$35C2  85 04     STA $04 
$35C4  A5 05     LDA $05 
$35C6  69 00     ADC #$00
$35C8  85 05     STA $05 
$35CA  60        RTS 
//------------------------------
L_BRS_($35CB)_($35B4) OK
L_BRS_($35CB)_($35D2) OK
//------------------------------
$35CB  B1 06     LDA ($06),Y 
$35CD  49 FF     EOR #$FF
$35CF  91 04     STA ($04),Y 
$35D1  88        DEY 
$35D2  10 F7     BPL L_BRS_($35CB)_($35D2) OK
$35D4  4C BD 35  JMP L_JMP_($35BD)_($35D4) OK
//------------------------------
L_JSR_($35D7)_($283E) OK
L_JSR_($35D7)_($2C61) OK
L_JSR_($35D7)_($2E17) OK
L_JSR_($35D7)_($2E4E) OK
L_JSR_($35D7)_($2E74) OK
L_JSR_($35D7)_($2F8E) OK
L_JSR_($35D7)_($2FEE) OK
L_JSR_($35D7)_($3273) OK
L_JSR_($35D7)_($336A) OK
//------------------------------
$35D7  A0 00     LDY #$00
$35D9  B1 00     LDA ($00),Y 
$35DB  85 12     STA $12 
$35DD  C8        INY 
$35DE  B1 00     LDA ($00),Y 
$35E0  85 10     STA $10 
$35E2  A0 03     LDY #$03
$35E4  B1 00     LDA ($00),Y 
$35E6  85 11     STA $11 
$35E8  60        RTS 
//------------------------------
L_JSR_($35E9)_($231C) OK
L_JSR_($35E9)_($2851) OK
L_JSR_($35E9)_($2936) OK
L_JSR_($35E9)_($2BD1) OK
L_JSR_($35E9)_($2DCE) OK
L_JSR_($35E9)_($2E96) OK
L_JSR_($35E9)_($2EAC) OK
L_JSR_($35E9)_($2F82) OK
L_JSR_($35E9)_($2FBD) OK
L_JSR_($35E9)_($3054) OK
L_JSR_($35E9)_($3737) OK
//------------------------------
$35E9  A0 00     LDY #$00
$35EB  B1 00     LDA ($00),Y 
$35ED  85 1A     STA $1A 
$35EF  C8        INY 
$35F0  B1 00     LDA ($00),Y 
$35F2  85 18     STA $18 
$35F4  A0 03     LDY #$03
$35F6  B1 00     LDA ($00),Y 
$35F8  85 19     STA $19 
$35FA  A0 05     LDY #$05
$35FC  B1 00     LDA ($00),Y 
$35FE  85 1B     STA $1B 
$3600  60        RTS 
//------------------------------
L_JMP_($3601)_($2D49) OK
L_JSR_($3601)_($2E99) OK
L_JSR_($3601)_($3358) OK
//------------------------------
$3601  20 37 37  JSR L_JSR_($3737)_($3601) OK
//------------------------------
L_JSR_($3604)_($295E) OK
L_JSR_($3604)_($2DD4) OK
L_JMP_($3604)_($3060) OK
//------------------------------
$3604  A9 00     LDA #$00
$3606  85 14     STA $14 
$3608  85 03     STA $03 
$360A  4C 4C 36  JMP L_JMP_($364C)_($360A) OK
//------------------------------
L_JSR_($360D)_($28F9) OK
//------------------------------
$360D  20 8A 37  JSR L_JSR_($378A)_($360D) OK
//------------------------------
L_JSR_($3610)_($27DE) OK
L_JSR_($3610)_($2828) OK
L_JSR_($3610)_($2864) OK
//------------------------------
$3610  A9 00     LDA #$00
$3612  85 15     STA $15 
$3614  85 0B     STA $0B 
$3616  4C 4C 36  JMP L_JMP_($364C)_($3616) OK
//------------------------------
L_BRS_($3619)_($3661) OK
//------------------------------
$3619  49 FF     EOR #$FF
$361B  18        CLC 
$361C  69 01     ADC #$01
$361E  C5 0B     CMP $0B 
$3620  B0 66     BCS L_BRS_($3688)_($3620) OK
$3622  AA        TAX 
$3623  48        PHA 
$3624  85 0A     STA $0A 
$3626  A5 0B     LDA $0B 
$3628  38        SEC 
$3629  E5 0A     SBC $0A 
$362B  85 0A     STA $0A 
$362D  A4 09     LDY $09 
//------------------------------
L_BRS_($362F)_($3637) OK
//------------------------------
$362F  B1 0E     LDA ($0E),Y 
$3631  51 0C     EOR ($0C),Y 
$3633  91 0C     STA ($0C),Y 
$3635  88        DEY 
$3636  CA        DEX 
$3637  D0 F6     BNE L_BRS_($362F)_($3637) OK
$3639  68        PLA 
$363A  85 13     STA $13 
$363C  A5 09     LDA $09 
$363E  38        SEC 
$363F  E5 13     SBC $13 
$3641  85 09     STA $09 
$3643  4C 88 36  JMP L_JMP_($3688)_($3643) OK
//------------------------------
L_JSR_($3646)_($2CC3) OK
L_JSR_($3646)_($32F9) OK
//------------------------------
$3646  20 37 37  JSR L_JSR_($3737)_($3646) OK
$3649  20 8A 37  JSR L_JSR_($378A)_($3649) OK
//------------------------------
L_JSR_($364C)_($27F4) OK
L_JSR_($364C)_($2EB8) OK
L_JSR_($364C)_($2FD1) OK
L_JMP_($364C)_($360A) OK
L_JMP_($364C)_($3616) OK
L_JMP_($364C)_($371F) OK
L_JMP_($364C)_($3726) OK
//------------------------------
$364C  A9 FF     LDA #$FF
$364E  85 08     STA $08 
$3650  85 09     STA $09 
$3652  A5 03     LDA $03 
$3654  85 02     STA $02 
$3656  A5 0B     LDA $0B 
$3658  85 0A     STA $0A 
$365A  A5 11     LDA $11 
$365C  38        SEC 
$365D  E5 19     SBC $19 
$365F  F0 27     BEQ L_BRS_($3688)_($365F) OK
$3661  30 B6     BMI L_BRS_($3619)_($3661) OK
$3663  C5 03     CMP $03 
$3665  B0 21     BCS L_BRS_($3688)_($3665) OK
$3667  AA        TAX 
$3668  48        PHA 
$3669  85 02     STA $02 
$366B  A5 03     LDA $03 
$366D  38        SEC 
$366E  E5 02     SBC $02 
$3670  85 02     STA $02 
$3672  A4 08     LDY $08 
//------------------------------
L_BRS_($3674)_($367C) OK
//------------------------------
$3674  B1 06     LDA ($06),Y 
$3676  51 04     EOR ($04),Y 
$3678  91 04     STA ($04),Y 
$367A  88        DEY 
$367B  CA        DEX 
$367C  D0 F6     BNE L_BRS_($3674)_($367C) OK
$367E  68        PLA 
$367F  85 13     STA $13 
$3681  A5 08     LDA $08 
$3683  38        SEC 
$3684  E5 13     SBC $13 
$3686  85 08     STA $08 
//------------------------------
L_BRS_($3688)_($3620) OK
L_JMP_($3688)_($3643) OK
L_BRS_($3688)_($365F) OK
L_BRS_($3688)_($3665) OK
L_BRS_($3688)_($369A) OK
L_JMP_($3688)_($36A8) OK
//------------------------------
$3688  A5 02     LDA $02 
$368A  F0 1F     BEQ L_BRS_($36AB)_($368A) OK
$368C  C6 02     DEC $02 
$368E  A4 08     LDY $08 
$3690  B1 06     LDA ($06),Y 
$3692  51 04     EOR ($04),Y 
$3694  91 04     STA ($04),Y 
$3696  C6 08     DEC $08 
$3698  A5 0A     LDA $0A 
$369A  F0 EC     BEQ L_BRS_($3688)_($369A) OK
//------------------------------
L_BRS_($369C)_($36AD) OK
//------------------------------
$369C  C6 0A     DEC $0A 
$369E  A4 09     LDY $09 
$36A0  B1 0E     LDA ($0E),Y 
$36A2  51 0C     EOR ($0C),Y 
$36A4  91 0C     STA ($0C),Y 
$36A6  C6 09     DEC $09 
$36A8  4C 88 36  JMP L_JMP_($3688)_($36A8) OK
//------------------------------
L_BRS_($36AB)_($368A) OK
//------------------------------
$36AB  A5 0A     LDA $0A 
$36AD  D0 ED     BNE L_BRS_($369C)_($36AD) OK
$36AF  A5 14     LDA $14 
$36B1  F0 76     BEQ L_BRS_($3729)_($36B1) OK
$36B3  C6 14     DEC $14 
$36B5  A5 06     LDA $06 
$36B7  38        SEC 
$36B8  E5 03     SBC $03 
$36BA  85 06     STA $06 
$36BC  A5 07     LDA $07 
$36BE  E9 00     SBC #$00
$36C0  85 07     STA $07 
$36C2  A5 04     LDA $04 
$36C4  18        CLC 
$36C5  69 B0     ADC #$B0
$36C7  85 04     STA $04 
$36C9  A5 05     LDA $05 
$36CB  69 00     ADC #$00
$36CD  85 05     STA $05 
$36CF  A5 04     LDA $04 
$36D1  38        SEC 
$36D2  E9 D1     SBC #$D1
$36D4  A5 05     LDA $05 
$36D6  E9 1E     SBC #$1E
$36D8  90 0D     BCC L_BRS_($36E7)_($36D8) OK
$36DA  A5 04     LDA $04 
$36DC  38        SEC 
$36DD  E9 D0     SBC #$D0
$36DF  85 04     STA $04 
$36E1  A5 05     LDA $05 
$36E3  E9 0F     SBC #$0F
$36E5  85 05     STA $05 
//------------------------------
L_BRS_($36E7)_($36D8) OK
L_JMP_($36E7)_($3734) OK
//------------------------------
$36E7  A5 15     LDA $15 
$36E9  F0 37     BEQ L_BRS_($3722)_($36E9) OK
$36EB  C6 15     DEC $15 
$36ED  A5 0E     LDA $0E 
$36EF  38        SEC 
$36F0  E5 0B     SBC $0B 
$36F2  85 0E     STA $0E 
$36F4  A5 0F     LDA $0F 
$36F6  E9 00     SBC #$00
$36F8  85 0F     STA $0F 
$36FA  A5 0C     LDA $0C 
$36FC  18        CLC 
$36FD  69 B0     ADC #$B0
$36FF  85 0C     STA $0C 
$3701  A5 0D     LDA $0D 
$3703  69 00     ADC #$00
$3705  85 0D     STA $0D 
$3707  A5 0C     LDA $0C 
$3709  38        SEC 
$370A  E9 D1     SBC #$D1
$370C  A5 0D     LDA $0D 
$370E  E9 1E     SBC #$1E
$3710  90 0D     BCC L_BRS_($371F)_($3710) OK
$3712  A5 0C     LDA $0C 
$3714  38        SEC 
$3715  E9 D0     SBC #$D0
$3717  85 0C     STA $0C 
$3719  A5 0D     LDA $0D 
$371B  E9 0F     SBC #$0F
$371D  85 0D     STA $0D 
//------------------------------
L_BRS_($371F)_($3710) OK
//------------------------------
$371F  4C 4C 36  JMP L_JMP_($364C)_($371F) OK
//------------------------------
L_BRS_($3722)_($36E9) OK
//------------------------------
$3722  A9 00     LDA #$00
$3724  85 0B     STA $0B 
$3726  4C 4C 36  JMP L_JMP_($364C)_($3726) OK
//------------------------------
L_BRS_($3729)_($36B1) OK
//------------------------------
$3729  A9 00     LDA #$00
$372B  85 03     STA $03 
$372D  A5 14     LDA $14 
$372F  05 15     ORA $15
$3731  D0 01     BNE L_BRS_($3734)_($3731) OK
$3733  60        RTS 
//------------------------------
L_BRS_($3734)_($3731) OK
//------------------------------
$3734  4C E7 36  JMP L_JMP_($36E7)_($3734) OK
//------------------------------
L_JSR_($3737)_($3601) OK
L_JSR_($3737)_($3646) OK
//------------------------------
$3737  20 E9 35  JSR L_JSR_($35E9)_($3737) OK
$373A  20 15 38  JSR L_JSR_($3815)_($373A) OK
//------------------------------
L_JSR_($373D)_($27E7) OK
L_JSR_($373D)_($295B) OK
L_JSR_($373D)_($2DF5) OK
L_JSR_($373D)_($2FC7) OK
L_JSR_($373D)_($305D) OK
//------------------------------
$373D  84 0E     STY $0E 
$373F  A8        TAY 
$3740  88        DEY 
$3741  84 0F     STY $0F 
$3743  A5 18     LDA $18 
$3745  85 04     STA $04 
$3747  A5 19     LDA $19 
$3749  85 05     STA $05 
$374B  A0 FF     LDY #$FF
$374D  B1 0E     LDA ($0E),Y 
$374F  18        CLC 
$3750  65 04     ADC $04 
$3752  C9 B8     CMP #$B8
$3754  90 03     BCC L_BRS_($3759)_($3754) OK
$3756  38        SEC 
$3757  E9 B8     SBC #$B8
//------------------------------
L_BRS_($3759)_($3754) OK
//------------------------------
$3759  85 04     STA $04 
$375B  85 18     STA $18 
$375D  20 1D 35  JSR L_JSR_($351D)_($375D) OK
$3760  A5 04     LDA $04 
$3762  38        SEC 
$3763  E9 FF     SBC #$FF
$3765  85 0C     STA $0C 
$3767  A5 05     LDA $05 
$3769  E9 00     SBC #$00
$376B  85 0D     STA $0D 
$376D  A0 FE     LDY #$FE
$376F  B1 0E     LDA ($0E),Y 
$3771  85 15     STA $15 
$3773  85 16     STA $16 
$3775  88        DEY 
$3776  B1 0E     LDA ($0E),Y 
$3778  85 0B     STA $0B 
$377A  85 17     STA $17 
$377C  A5 0E     LDA $0E 
$377E  38        SEC 
$377F  E9 03     SBC #$03
$3781  85 0E     STA $0E 
$3783  A5 0F     LDA $0F 
$3785  E9 00     SBC #$00
$3787  85 0F     STA $0F 
$3789  60        RTS 
//------------------------------
L_JSR_($378A)_($360D) OK
L_JSR_($378A)_($3649) OK
//------------------------------
$378A  20 E6 37  JSR L_JSR_($37E6)_($378A) OK
//------------------------------
L_JSR_($378D)_($27DB) OK
L_JSR_($378D)_($27F1) OK
L_JSR_($378D)_($2825) OK
L_JSR_($378D)_($2861) OK
L_JMP_($378D)_($2DFC) OK
L_JSR_($378D)_($2FCE) OK
//------------------------------
$378D  84 06     STY $06 
$378F  A8        TAY 
$3790  88        DEY 
$3791  84 07     STY $07 
$3793  A5 10     LDA $10 
$3795  85 04     STA $04 
$3797  A5 11     LDA $11 
$3799  85 05     STA $05 
$379B  A0 FF     LDY #$FF
$379D  B1 06     LDA ($06),Y 
$379F  18        CLC 
$37A0  65 04     ADC $04 
$37A2  C9 B8     CMP #$B8
$37A4  90 03     BCC L_BRS_($37A9)_($37A4) OK
$37A6  38        SEC 
$37A7  E9 B8     SBC #$B8
//------------------------------
L_BRS_($37A9)_($37A4) OK
//------------------------------
$37A9  85 04     STA $04 
$37AB  20 1D 35  JSR L_JSR_($351D)_($37AB) OK
$37AE  A5 04     LDA $04 
$37B0  38        SEC 
$37B1  E9 FF     SBC #$FF
$37B3  85 04     STA $04 
$37B5  A5 05     LDA $05 
$37B7  E9 00     SBC #$00
$37B9  85 05     STA $05 
$37BB  A0 FE     LDY #$FE
$37BD  B1 06     LDA ($06),Y 
$37BF  85 14     STA $14 
$37C1  88        DEY 
$37C2  B1 06     LDA ($06),Y 
$37C4  85 03     STA $03 
$37C6  A5 06     LDA $06 
$37C8  38        SEC 
$37C9  E9 03     SBC #$03
$37CB  85 06     STA $06 
$37CD  A5 07     LDA $07 
$37CF  E9 00     SBC #$00
$37D1  85 07     STA $07 
$37D3  60        RTS 
//------------------------------
L_BRS_($37D4)_($37F2) OK
//------------------------------
$37D4  48        PHA 
$37D5  8A        TXA 
$37D6  4A        LSR A 
$37D7  29 02     AND #$02
$37D9  AA        TAX 
$37DA  68        PLA 
$37DB  38        SEC 
$37DC  E9 03     SBC #$03
$37DE  0A        ASL A 
$37DF  0A        ASL A 
$37E0  18        CLC 
$37E1  69 20     ADC #$20
$37E3  4C 07 38  JMP L_JMP_($3807)_($37E3) OK
//------------------------------
L_JSR_($37E6)_($378A) OK
//------------------------------
$37E6  A5 10     LDA $10 
$37E8  29 06     AND #$06
$37EA  AA        TAX 
$37EB  A5 12     LDA $12 
//------------------------------
L_JMP_($37ED)_($381C) OK
//------------------------------
$37ED  A8        TAY 
$37EE  29 3F     AND #$3F
$37F0  C9 03     CMP #$03
$37F2  B0 E0     BCS L_BRS_($37D4)_($37F2) OK
$37F4  98        TYA 
$37F5  2C 1B 20  BIT $201B 
$37F8  F0 06     BEQ L_BRS_($3800)_($37F8) OK
$37FA  48        PHA 
$37FB  8A        TXA 
$37FC  09 08     ORA #$08
$37FE  AA        TAX 
$37FF  68        PLA 
//------------------------------
L_BRS_($3800)_($37F8) OK
//------------------------------
$3800  38        SEC 
$3801  E9 01     SBC #$01
$3803  0A        ASL A 
$3804  0A        ASL A 
$3805  0A        ASL A 
$3806  0A        ASL A 
//------------------------------
L_JMP_($3807)_($37E3) OK
//------------------------------
$3807  85 13     STA $13 
$3809  8A        TXA 
$380A  05 13     ORA $13
$380C  AA        TAX 
$380D  BD 5F 38  LDA $385F,X 
$3810  A8        TAY 
$3811  BD 60 38  LDA $3860,X 
$3814  60        RTS 
//------------------------------
L_JSR_($3815)_($373A) OK
//------------------------------
$3815  A5 18     LDA $18 
$3817  29 06     AND #$06
$3819  AA        TAX 
$381A  A5 1A     LDA $1A 
$381C  4C ED 37  JMP L_JMP_($37ED)_($381C) OK
//------------------------------
L_JSR_($381F)_($2961) OK
L_JSR_($381F)_($2CC6) OK
L_JSR_($381F)_($2FD4) OK
L_JSR_($381F)_($32FC) OK
L_JSR_($381F)_($335B) OK
//------------------------------
$381F  A5 18     LDA $18 
$3821  85 04     STA $04 
$3823  A5 19     LDA $19 
$3825  85 05     STA $05 
$3827  20 F7 34  JSR L_JSR_($34F7)_($3827) OK
$382A  A5 17     LDA $17 
$382C  4A        LSR A 
$382D  4A        LSR A 
$382E  4A        LSR A 
$382F  4A        LSR A 
$3830  18        CLC 
$3831  69 02     ADC #$02
$3833  85 0B     STA $0B 
$3835  A5 16     LDA $16 
$3837  85 0A     STA $0A 
$3839  E6 0A     INC $0A 
//------------------------------
L_BRS_($383B)_($385C) OK
//------------------------------
$383B  A6 0A     LDX $0A 
$383D  A0 00     LDY #$00
//------------------------------
L_BRS_($383F)_($384D) OK
//------------------------------
$383F  B1 0C     LDA ($0C),Y 
$3841  29 07     AND #$07
$3843  C9 05     CMP #$05
$3845  F0 04     BEQ L_BRS_($384B)_($3845) OK
$3847  A5 1B     LDA $1B 
$3849  91 0C     STA ($0C),Y 
//------------------------------
L_BRS_($384B)_($3845) OK
//------------------------------
$384B  C8        INY 
$384C  CA        DEX 
$384D  D0 F0     BNE L_BRS_($383F)_($384D) OK
$384F  A5 0C     LDA $0C 
$3851  38        SEC 
$3852  E9 17     SBC #$17
$3854  C9 17     CMP #$17
$3856  90 06     BCC L_BRS_($385E)_($3856) OK
$3858  85 0C     STA $0C 
$385A  C6 0B     DEC $0B 
$385C  D0 DD     BNE L_BRS_($383B)_($385C) OK
//------------------------------
L_BRS_($385E)_($3856) OK
//------------------------------
$385E  60        RTS 
//------------------------------
